
elf/crypto_sign_mayo1_m4f_test.elf:     file format elf32-littlearm


Disassembly of section .text:

00000100 <deregister_tm_clones>:
     100:	4803      	ldr	r0, [pc, #12]	@ (110 <deregister_tm_clones+0x10>)
     102:	4b04      	ldr	r3, [pc, #16]	@ (114 <deregister_tm_clones+0x14>)
     104:	4283      	cmp	r3, r0
     106:	d002      	beq.n	10e <deregister_tm_clones+0xe>
     108:	4b03      	ldr	r3, [pc, #12]	@ (118 <deregister_tm_clones+0x18>)
     10a:	b103      	cbz	r3, 10e <deregister_tm_clones+0xe>
     10c:	4718      	bx	r3
     10e:	4770      	bx	lr
     110:	00015930 	.word	0x00015930
     114:	00015930 	.word	0x00015930
     118:	00000000 	.word	0x00000000

0000011c <register_tm_clones>:
     11c:	4805      	ldr	r0, [pc, #20]	@ (134 <register_tm_clones+0x18>)
     11e:	4b06      	ldr	r3, [pc, #24]	@ (138 <register_tm_clones+0x1c>)
     120:	1a1b      	subs	r3, r3, r0
     122:	0fd9      	lsrs	r1, r3, #31
     124:	eb01 01a3 	add.w	r1, r1, r3, asr #2
     128:	1049      	asrs	r1, r1, #1
     12a:	d002      	beq.n	132 <register_tm_clones+0x16>
     12c:	4b03      	ldr	r3, [pc, #12]	@ (13c <register_tm_clones+0x20>)
     12e:	b103      	cbz	r3, 132 <register_tm_clones+0x16>
     130:	4718      	bx	r3
     132:	4770      	bx	lr
     134:	00015930 	.word	0x00015930
     138:	00015930 	.word	0x00015930
     13c:	00000000 	.word	0x00000000

00000140 <__do_global_dtors_aux>:
     140:	b510      	push	{r4, lr}
     142:	4c06      	ldr	r4, [pc, #24]	@ (15c <__do_global_dtors_aux+0x1c>)
     144:	7823      	ldrb	r3, [r4, #0]
     146:	b943      	cbnz	r3, 15a <__do_global_dtors_aux+0x1a>
     148:	f7ff ffda 	bl	100 <deregister_tm_clones>
     14c:	4b04      	ldr	r3, [pc, #16]	@ (160 <__do_global_dtors_aux+0x20>)
     14e:	b113      	cbz	r3, 156 <__do_global_dtors_aux+0x16>
     150:	4804      	ldr	r0, [pc, #16]	@ (164 <__do_global_dtors_aux+0x24>)
     152:	f3af 8000 	nop.w
     156:	2301      	movs	r3, #1
     158:	7023      	strb	r3, [r4, #0]
     15a:	bd10      	pop	{r4, pc}
     15c:	00015930 	.word	0x00015930
     160:	00000000 	.word	0x00000000
     164:	00014fa0 	.word	0x00014fa0

00000168 <frame_dummy>:
     168:	b508      	push	{r3, lr}
     16a:	4b04      	ldr	r3, [pc, #16]	@ (17c <frame_dummy+0x14>)
     16c:	b11b      	cbz	r3, 176 <frame_dummy+0xe>
     16e:	4904      	ldr	r1, [pc, #16]	@ (180 <frame_dummy+0x18>)
     170:	4804      	ldr	r0, [pc, #16]	@ (184 <frame_dummy+0x1c>)
     172:	f3af 8000 	nop.w
     176:	e8bd 4008 	ldmia.w	sp!, {r3, lr}
     17a:	e7cf      	b.n	11c <register_tm_clones>
     17c:	00000000 	.word	0x00000000
     180:	00015934 	.word	0x00015934
     184:	00014fa0 	.word	0x00014fa0

00000188 <_stack_init>:
     188:	f5a3 3a80 	sub.w	sl, r3, #65536	@ 0x10000
     18c:	4770      	bx	lr
     18e:	bf00      	nop

00000190 <_mainCRTStartup>:
     190:	4b15      	ldr	r3, [pc, #84]	@ (1e8 <_mainCRTStartup+0x58>)
     192:	2b00      	cmp	r3, #0
     194:	bf08      	it	eq
     196:	4b11      	ldreq	r3, [pc, #68]	@ (1dc <_mainCRTStartup+0x4c>)
     198:	469d      	mov	sp, r3
     19a:	f7ff fff5 	bl	188 <_stack_init>
     19e:	2100      	movs	r1, #0
     1a0:	468b      	mov	fp, r1
     1a2:	460f      	mov	r7, r1
     1a4:	4811      	ldr	r0, [pc, #68]	@ (1ec <_mainCRTStartup+0x5c>)
     1a6:	4a12      	ldr	r2, [pc, #72]	@ (1f0 <_mainCRTStartup+0x60>)
     1a8:	1a12      	subs	r2, r2, r0
     1aa:	f013 fef7 	bl	13f9c <memset>
     1ae:	4b0c      	ldr	r3, [pc, #48]	@ (1e0 <_mainCRTStartup+0x50>)
     1b0:	2b00      	cmp	r3, #0
     1b2:	d000      	beq.n	1b6 <_mainCRTStartup+0x26>
     1b4:	4798      	blx	r3
     1b6:	4b0b      	ldr	r3, [pc, #44]	@ (1e4 <_mainCRTStartup+0x54>)
     1b8:	2b00      	cmp	r3, #0
     1ba:	d000      	beq.n	1be <_mainCRTStartup+0x2e>
     1bc:	4798      	blx	r3
     1be:	2000      	movs	r0, #0
     1c0:	2100      	movs	r1, #0
     1c2:	0004      	movs	r4, r0
     1c4:	000d      	movs	r5, r1
     1c6:	480b      	ldr	r0, [pc, #44]	@ (1f4 <_mainCRTStartup+0x64>)
     1c8:	f014 f8c8 	bl	1435c <atexit>
     1cc:	f014 f890 	bl	142f0 <__libc_init_array>
     1d0:	0020      	movs	r0, r4
     1d2:	0029      	movs	r1, r5
     1d4:	f000 f988 	bl	4e8 <main>
     1d8:	f014 f8b2 	bl	14340 <exit>
     1dc:	00080000 	.word	0x00080000
	...
     1e8:	20400000 	.word	0x20400000
     1ec:	00015930 	.word	0x00015930
     1f0:	00015ce0 	.word	0x00015ce0
     1f4:	00014369 	.word	0x00014369

000001f8 <test_wrong_pk.isra.0>:
    }

    return 0;
}

static int test_wrong_pk(void)
     1f8:	b5f0      	push	{r4, r5, r6, r7, lr}
    int i;

    for (i = 0; i < NTESTS; i++) {
        #ifndef BIG_PUBLIC_KEY_TESTS
        MUPQ_crypto_sign_keypair(pk2, sk);
        hal_send_str("crypto_sign_keypair DONE.\n");
     1fa:	4d1e      	ldr	r5, [pc, #120]	@ (274 <test_wrong_pk.isra.0+0x7c>)
        MUPQ_crypto_sign_keypair(pk, sk);
        hal_send_str("crypto_sign_keypair DONE.\n");

        randombytes(m, MLEN);
        MUPQ_crypto_sign(sm, &smlen, m, MLEN, sk);
        hal_send_str("crypto_sign DONE.\n");
     1fc:	4f1e      	ldr	r7, [pc, #120]	@ (278 <test_wrong_pk.isra.0+0x80>)
static int test_wrong_pk(void)
     1fe:	f6ad 5d4c 	subw	sp, sp, #3404	@ 0xd4c
     202:	240f      	movs	r4, #15
     204:	f20d 76bc 	addw	r6, sp, #1980	@ 0x7bc
        MUPQ_crypto_sign_keypair(pk2, sk);
     208:	a904      	add	r1, sp, #16
     20a:	4630      	mov	r0, r6
     20c:	f005 ff10 	bl	6030 <pqmayo_MAYO_1_m4_crypto_sign_keypair>
        hal_send_str("crypto_sign_keypair DONE.\n");
     210:	4628      	mov	r0, r5
     212:	f013 fbcf 	bl	139b4 <hal_send_str>
        MUPQ_crypto_sign_keypair(pk, sk);
     216:	a904      	add	r1, sp, #16
     218:	a88c      	add	r0, sp, #560	@ 0x230
     21a:	f005 ff09 	bl	6030 <pqmayo_MAYO_1_m4_crypto_sign_keypair>
        hal_send_str("crypto_sign_keypair DONE.\n");
     21e:	4628      	mov	r0, r5
     220:	f013 fbc8 	bl	139b4 <hal_send_str>
        randombytes(m, MLEN);
     224:	2120      	movs	r1, #32
     226:	a80a      	add	r0, sp, #40	@ 0x28
     228:	f013 fe9e 	bl	13f68 <PQCLEAN_randombytes>
        MUPQ_crypto_sign(sm, &smlen, m, MLEN, sk);
     22c:	aa04      	add	r2, sp, #16
     22e:	2320      	movs	r3, #32
     230:	a903      	add	r1, sp, #12
     232:	9200      	str	r2, [sp, #0]
     234:	a812      	add	r0, sp, #72	@ 0x48
     236:	aa0a      	add	r2, sp, #40	@ 0x28
     238:	f005 ff00 	bl	603c <pqmayo_MAYO_1_m4_crypto_sign>
        hal_send_str("crypto_sign DONE.\n");
     23c:	4638      	mov	r0, r7
     23e:	f013 fbb9 	bl	139b4 <hal_send_str>
        #ifdef BIG_PUBLIC_KEY_TESTS
        randombytes(pk, sizeof pk);
        #endif

        // By relying on m == sm we prevent having to allocate CRYPTO_BYTES twice
        if (MUPQ_crypto_sign_open(sm, &mlen, sm, smlen, pk2))
     242:	aa12      	add	r2, sp, #72	@ 0x48
     244:	9b03      	ldr	r3, [sp, #12]
     246:	9600      	str	r6, [sp, #0]
     248:	a902      	add	r1, sp, #8
     24a:	4610      	mov	r0, r2
     24c:	f005 ff12 	bl	6074 <pqmayo_MAYO_1_m4_crypto_sign_open>
     250:	4603      	mov	r3, r0
        {
            hal_send_str("OK Signature did not verify correctly under wrong public key!\n");
     252:	480a      	ldr	r0, [pc, #40]	@ (27c <test_wrong_pk.isra.0+0x84>)
        if (MUPQ_crypto_sign_open(sm, &mlen, sm, smlen, pk2))
     254:	b903      	cbnz	r3, 258 <test_wrong_pk.isra.0+0x60>
        }
        else
        {
            hal_send_str("ERROR Signature did verify correctly under wrong public key!\n");
     256:	480a      	ldr	r0, [pc, #40]	@ (280 <test_wrong_pk.isra.0+0x88>)
     258:	f013 fbac 	bl	139b4 <hal_send_str>
        }
        hal_send_str("crypto_sign_open DONE.\n");
     25c:	4809      	ldr	r0, [pc, #36]	@ (284 <test_wrong_pk.isra.0+0x8c>)
     25e:	f013 fba9 	bl	139b4 <hal_send_str>
        hal_send_str("+");
     262:	4809      	ldr	r0, [pc, #36]	@ (288 <test_wrong_pk.isra.0+0x90>)
     264:	f013 fba6 	bl	139b4 <hal_send_str>
    for (i = 0; i < NTESTS; i++) {
     268:	3c01      	subs	r4, #1
     26a:	d1cd      	bne.n	208 <test_wrong_pk.isra.0+0x10>
    }

    return 0;
}
     26c:	f60d 5d4c 	addw	sp, sp, #3404	@ 0xd4c
     270:	bdf0      	pop	{r4, r5, r6, r7, pc}
     272:	bf00      	nop
     274:	00014d2c 	.word	0x00014d2c
     278:	00014d4c 	.word	0x00014d4c
     27c:	00014d60 	.word	0x00014d60
     280:	00014dbc 	.word	0x00014dbc
     284:	00014da0 	.word	0x00014da0
     288:	00014db8 	.word	0x00014db8

0000028c <test_sign.isra.0>:
static int test_sign(void)
     28c:	e92d 43f0 	stmdb	sp!, {r4, r5, r6, r7, r8, r9, lr}
    d[i] = canary[i];
     290:	a392      	add	r3, pc, #584	@ (adr r3, 4dc <STACK_SIZE+0xdc>)
     292:	e9d3 2300 	ldrd	r2, r3, [r3]
static int test_sign(void)
     296:	f6ad 0d04 	subw	sp, sp, #2052	@ 0x804
    d[i] = canary[i];
     29a:	4987      	ldr	r1, [pc, #540]	@ (4b8 <STACK_SIZE+0xb8>)
        hal_send_str("crypto_sign_keypair DONE.\n");
     29c:	f8df 8244 	ldr.w	r8, [pc, #580]	@ 4e4 <STACK_SIZE+0xe4>
        hal_send_str("crypto_sign DONE.\n");
     2a0:	4f86      	ldr	r7, [pc, #536]	@ (4bc <STACK_SIZE+0xbc>)
    d[i] = canary[i];
     2a2:	f8cd 17f4 	str.w	r1, [sp, #2036]	@ 0x7f4
     2a6:	e9cd 2398 	strd	r2, r3, [sp, #608]	@ 0x260
     2aa:	e9cd 2304 	strd	r2, r3, [sp, #16]
     2ae:	e9cd 230c 	strd	r2, r3, [sp, #48]	@ 0x30
     2b2:	e9cd 230e 	strd	r2, r3, [sp, #56]	@ 0x38
     2b6:	e9cd 2318 	strd	r2, r3, [sp, #96]	@ 0x60
     2ba:	e9cd 231a 	strd	r2, r3, [sp, #104]	@ 0x68
     2be:	4b80      	ldr	r3, [pc, #512]	@ (4c0 <STACK_SIZE+0xc0>)
     2c0:	f8cd 1256 	str.w	r1, [sp, #598]	@ 0x256
     2c4:	f8cd 37f8 	str.w	r3, [sp, #2040]	@ 0x7f8
     2c8:	f8cd 325a 	str.w	r3, [sp, #602]	@ 0x25a
     2cc:	240f      	movs	r4, #15
     2ce:	ae06      	add	r6, sp, #24
     2d0:	ad9a      	add	r5, sp, #616	@ 0x268
     2d2:	e00b      	b.n	2ec <test_sign.isra.0+0x60>
            hal_send_str("ERROR Signature did not verify correctly!\n");
     2d4:	487b      	ldr	r0, [pc, #492]	@ (4c4 <STACK_SIZE+0xc4>)
     2d6:	f013 fb6d 	bl	139b4 <hal_send_str>
        hal_send_str("crypto_sign_open DONE.\n");
     2da:	487b      	ldr	r0, [pc, #492]	@ (4c8 <STACK_SIZE+0xc8>)
     2dc:	f013 fb6a 	bl	139b4 <hal_send_str>
        hal_send_str("+");
     2e0:	487a      	ldr	r0, [pc, #488]	@ (4cc <STACK_SIZE+0xcc>)
     2e2:	f013 fb67 	bl	139b4 <hal_send_str>
    for (i = 0; i < NTESTS; i++) {
     2e6:	3c01      	subs	r4, #1
     2e8:	f000 80e2 	beq.w	4b0 <STACK_SIZE+0xb0>
        MUPQ_crypto_sign_keypair(pk+8, sk+8);
     2ec:	4631      	mov	r1, r6
     2ee:	4628      	mov	r0, r5
     2f0:	f005 fe9e 	bl	6030 <pqmayo_MAYO_1_m4_crypto_sign_keypair>
        hal_send_str("crypto_sign_keypair DONE.\n");
     2f4:	4640      	mov	r0, r8
     2f6:	f013 fb5d 	bl	139b4 <hal_send_str>
        randombytes(m+8, MLEN);
     2fa:	2120      	movs	r1, #32
     2fc:	a810      	add	r0, sp, #64	@ 0x40
     2fe:	f013 fe33 	bl	13f68 <PQCLEAN_randombytes>
        MUPQ_crypto_sign(sm+8, &smlen, m+8, MLEN, sk+8);
     302:	2320      	movs	r3, #32
     304:	aa10      	add	r2, sp, #64	@ 0x40
     306:	a903      	add	r1, sp, #12
     308:	9600      	str	r6, [sp, #0]
     30a:	a81c      	add	r0, sp, #112	@ 0x70
     30c:	f005 fe96 	bl	603c <pqmayo_MAYO_1_m4_crypto_sign>
        hal_send_str("crypto_sign DONE.\n");
     310:	4638      	mov	r0, r7
     312:	f013 fb4f 	bl	139b4 <hal_send_str>
        if (MUPQ_crypto_sign_open(sm+8, &mlen, sm+8, smlen, pk+8))
     316:	aa1c      	add	r2, sp, #112	@ 0x70
     318:	9b03      	ldr	r3, [sp, #12]
     31a:	9500      	str	r5, [sp, #0]
     31c:	a902      	add	r1, sp, #8
     31e:	4610      	mov	r0, r2
     320:	f005 fea8 	bl	6074 <pqmayo_MAYO_1_m4_crypto_sign_open>
     324:	2800      	cmp	r0, #0
     326:	d1d5      	bne.n	2d4 <test_sign.isra.0+0x48>
    if (d[i] != canary[i]) {
     328:	f89d 3260 	ldrb.w	r3, [sp, #608]	@ 0x260
     32c:	2b01      	cmp	r3, #1
     32e:	f040 80bb 	bne.w	4a8 <STACK_SIZE+0xa8>
     332:	f89d 3261 	ldrb.w	r3, [sp, #609]	@ 0x261
     336:	2b23      	cmp	r3, #35	@ 0x23
     338:	f040 80b6 	bne.w	4a8 <STACK_SIZE+0xa8>
     33c:	f89d 3262 	ldrb.w	r3, [sp, #610]	@ 0x262
     340:	2b45      	cmp	r3, #69	@ 0x45
     342:	f040 80b1 	bne.w	4a8 <STACK_SIZE+0xa8>
     346:	f89d 3263 	ldrb.w	r3, [sp, #611]	@ 0x263
     34a:	2b67      	cmp	r3, #103	@ 0x67
     34c:	f040 80ac 	bne.w	4a8 <STACK_SIZE+0xa8>
     350:	f89d 3264 	ldrb.w	r3, [sp, #612]	@ 0x264
     354:	2b89      	cmp	r3, #137	@ 0x89
     356:	f040 80a7 	bne.w	4a8 <STACK_SIZE+0xa8>
     35a:	f89d 3265 	ldrb.w	r3, [sp, #613]	@ 0x265
     35e:	2bab      	cmp	r3, #171	@ 0xab
     360:	f040 80a2 	bne.w	4a8 <STACK_SIZE+0xa8>
     364:	f89d 3266 	ldrb.w	r3, [sp, #614]	@ 0x266
     368:	2bcd      	cmp	r3, #205	@ 0xcd
     36a:	f040 809d 	bne.w	4a8 <STACK_SIZE+0xa8>
     36e:	f89d 3267 	ldrb.w	r3, [sp, #615]	@ 0x267
     372:	2bef      	cmp	r3, #239	@ 0xef
     374:	f040 8098 	bne.w	4a8 <STACK_SIZE+0xa8>
     378:	f89d 37f4 	ldrb.w	r3, [sp, #2036]	@ 0x7f4
     37c:	2b01      	cmp	r3, #1
     37e:	f040 8093 	bne.w	4a8 <STACK_SIZE+0xa8>
     382:	f89d 37f5 	ldrb.w	r3, [sp, #2037]	@ 0x7f5
     386:	2b23      	cmp	r3, #35	@ 0x23
     388:	f040 808e 	bne.w	4a8 <STACK_SIZE+0xa8>
     38c:	f89d 37f6 	ldrb.w	r3, [sp, #2038]	@ 0x7f6
     390:	2b45      	cmp	r3, #69	@ 0x45
     392:	f040 8089 	bne.w	4a8 <STACK_SIZE+0xa8>
     396:	f89d 37f7 	ldrb.w	r3, [sp, #2039]	@ 0x7f7
     39a:	2b67      	cmp	r3, #103	@ 0x67
     39c:	f040 8084 	bne.w	4a8 <STACK_SIZE+0xa8>
     3a0:	f89d 37f8 	ldrb.w	r3, [sp, #2040]	@ 0x7f8
     3a4:	2b89      	cmp	r3, #137	@ 0x89
     3a6:	d17f      	bne.n	4a8 <STACK_SIZE+0xa8>
     3a8:	f89d 37f9 	ldrb.w	r3, [sp, #2041]	@ 0x7f9
     3ac:	2bab      	cmp	r3, #171	@ 0xab
     3ae:	d17b      	bne.n	4a8 <STACK_SIZE+0xa8>
     3b0:	f89d 37fa 	ldrb.w	r3, [sp, #2042]	@ 0x7fa
     3b4:	2bcd      	cmp	r3, #205	@ 0xcd
     3b6:	d177      	bne.n	4a8 <STACK_SIZE+0xa8>
     3b8:	f89d 37fb 	ldrb.w	r3, [sp, #2043]	@ 0x7fb
     3bc:	2bef      	cmp	r3, #239	@ 0xef
     3be:	d173      	bne.n	4a8 <STACK_SIZE+0xa8>
     3c0:	f89d 3010 	ldrb.w	r3, [sp, #16]
     3c4:	2b01      	cmp	r3, #1
     3c6:	d16f      	bne.n	4a8 <STACK_SIZE+0xa8>
     3c8:	f89d 3011 	ldrb.w	r3, [sp, #17]
     3cc:	2b23      	cmp	r3, #35	@ 0x23
     3ce:	d16b      	bne.n	4a8 <STACK_SIZE+0xa8>
     3d0:	f89d 3012 	ldrb.w	r3, [sp, #18]
     3d4:	2b45      	cmp	r3, #69	@ 0x45
     3d6:	d167      	bne.n	4a8 <STACK_SIZE+0xa8>
     3d8:	f89d 3013 	ldrb.w	r3, [sp, #19]
     3dc:	2b67      	cmp	r3, #103	@ 0x67
     3de:	d163      	bne.n	4a8 <STACK_SIZE+0xa8>
     3e0:	f89d 3014 	ldrb.w	r3, [sp, #20]
     3e4:	2b89      	cmp	r3, #137	@ 0x89
     3e6:	d15f      	bne.n	4a8 <STACK_SIZE+0xa8>
     3e8:	f89d 3015 	ldrb.w	r3, [sp, #21]
     3ec:	2bab      	cmp	r3, #171	@ 0xab
     3ee:	d15b      	bne.n	4a8 <STACK_SIZE+0xa8>
     3f0:	f89d 3016 	ldrb.w	r3, [sp, #22]
     3f4:	2bcd      	cmp	r3, #205	@ 0xcd
     3f6:	d157      	bne.n	4a8 <STACK_SIZE+0xa8>
     3f8:	f89d 3017 	ldrb.w	r3, [sp, #23]
     3fc:	2bef      	cmp	r3, #239	@ 0xef
     3fe:	d153      	bne.n	4a8 <STACK_SIZE+0xa8>
     400:	f89d 3030 	ldrb.w	r3, [sp, #48]	@ 0x30
     404:	2b01      	cmp	r3, #1
     406:	d14f      	bne.n	4a8 <STACK_SIZE+0xa8>
     408:	f89d 3031 	ldrb.w	r3, [sp, #49]	@ 0x31
     40c:	2b23      	cmp	r3, #35	@ 0x23
     40e:	d14b      	bne.n	4a8 <STACK_SIZE+0xa8>
     410:	f89d 3032 	ldrb.w	r3, [sp, #50]	@ 0x32
     414:	2b45      	cmp	r3, #69	@ 0x45
     416:	d147      	bne.n	4a8 <STACK_SIZE+0xa8>
     418:	f89d 3033 	ldrb.w	r3, [sp, #51]	@ 0x33
     41c:	2b67      	cmp	r3, #103	@ 0x67
     41e:	d143      	bne.n	4a8 <STACK_SIZE+0xa8>
     420:	f89d 3034 	ldrb.w	r3, [sp, #52]	@ 0x34
     424:	2b89      	cmp	r3, #137	@ 0x89
     426:	d13f      	bne.n	4a8 <STACK_SIZE+0xa8>
     428:	f89d 3035 	ldrb.w	r3, [sp, #53]	@ 0x35
     42c:	2bab      	cmp	r3, #171	@ 0xab
     42e:	d13b      	bne.n	4a8 <STACK_SIZE+0xa8>
     430:	f89d 3036 	ldrb.w	r3, [sp, #54]	@ 0x36
     434:	2bcd      	cmp	r3, #205	@ 0xcd
     436:	d137      	bne.n	4a8 <STACK_SIZE+0xa8>
     438:	f89d 3037 	ldrb.w	r3, [sp, #55]	@ 0x37
     43c:	2bef      	cmp	r3, #239	@ 0xef
     43e:	d133      	bne.n	4a8 <STACK_SIZE+0xa8>
     440:	f8df e08c 	ldr.w	lr, [pc, #140]	@ 4d0 <STACK_SIZE+0xd0>
     444:	a91a      	add	r1, sp, #104	@ 0x68
     446:	4672      	mov	r2, lr
  for (size_t i = 0; i < 8; i++) {
     448:	2300      	movs	r3, #0
    if (d[i] != canary[i]) {
     44a:	f811 cb01 	ldrb.w	ip, [r1], #1
     44e:	f812 0b01 	ldrb.w	r0, [r2], #1
     452:	4584      	cmp	ip, r0
  for (size_t i = 0; i < 8; i++) {
     454:	f103 0301 	add.w	r3, r3, #1
    if (d[i] != canary[i]) {
     458:	d126      	bne.n	4a8 <STACK_SIZE+0xa8>
  for (size_t i = 0; i < 8; i++) {
     45a:	2b08      	cmp	r3, #8
     45c:	d1f5      	bne.n	44a <STACK_SIZE+0x4a>
     45e:	491c      	ldr	r1, [pc, #112]	@ (4d0 <STACK_SIZE+0xd0>)
     460:	f20d 2255 	addw	r2, sp, #597	@ 0x255
     464:	4618      	mov	r0, r3
    if (d[i] != canary[i]) {
     466:	f811 cb01 	ldrb.w	ip, [r1], #1
     46a:	f812 9f01 	ldrb.w	r9, [r2, #1]!
     46e:	45e1      	cmp	r9, ip
     470:	d11a      	bne.n	4a8 <STACK_SIZE+0xa8>
  for (size_t i = 0; i < 8; i++) {
     472:	3801      	subs	r0, #1
     474:	d1f7      	bne.n	466 <STACK_SIZE+0x66>
     476:	4816      	ldr	r0, [pc, #88]	@ (4d0 <STACK_SIZE+0xd0>)
     478:	a90e      	add	r1, sp, #56	@ 0x38
     47a:	2208      	movs	r2, #8
    if (d[i] != canary[i]) {
     47c:	f811 9b01 	ldrb.w	r9, [r1], #1
     480:	f810 cb01 	ldrb.w	ip, [r0], #1
     484:	45e1      	cmp	r9, ip
     486:	d10f      	bne.n	4a8 <STACK_SIZE+0xa8>
  for (size_t i = 0; i < 8; i++) {
     488:	3a01      	subs	r2, #1
     48a:	d1f7      	bne.n	47c <STACK_SIZE+0x7c>
     48c:	f10d 025f 	add.w	r2, sp, #95	@ 0x5f
    if (d[i] != canary[i]) {
     490:	f81e 1b01 	ldrb.w	r1, [lr], #1
     494:	f812 0f01 	ldrb.w	r0, [r2, #1]!
     498:	4288      	cmp	r0, r1
     49a:	d105      	bne.n	4a8 <STACK_SIZE+0xa8>
  for (size_t i = 0; i < 8; i++) {
     49c:	3b01      	subs	r3, #1
     49e:	d1f7      	bne.n	490 <STACK_SIZE+0x90>
            hal_send_str("OK Signature did verify correctly!\n");
     4a0:	480c      	ldr	r0, [pc, #48]	@ (4d4 <STACK_SIZE+0xd4>)
     4a2:	f013 fa87 	bl	139b4 <hal_send_str>
     4a6:	e718      	b.n	2da <test_sign.isra.0+0x4e>
            hal_send_str("ERROR canary overwritten\n");
     4a8:	480b      	ldr	r0, [pc, #44]	@ (4d8 <STACK_SIZE+0xd8>)
     4aa:	f013 fa83 	bl	139b4 <hal_send_str>
     4ae:	e714      	b.n	2da <test_sign.isra.0+0x4e>
}
     4b0:	f60d 0d04 	addw	sp, sp, #2052	@ 0x804
     4b4:	e8bd 83f0 	ldmia.w	sp!, {r4, r5, r6, r7, r8, r9, pc}
     4b8:	67452301 	.word	0x67452301
     4bc:	00014d4c 	.word	0x00014d4c
     4c0:	efcdab89 	.word	0xefcdab89
     4c4:	00014dfc 	.word	0x00014dfc
     4c8:	00014da0 	.word	0x00014da0
     4cc:	00014db8 	.word	0x00014db8
     4d0:	00014f14 	.word	0x00014f14
     4d4:	00014e44 	.word	0x00014e44
     4d8:	00014e28 	.word	0x00014e28
     4dc:	67452301 	.word	0x67452301
     4e0:	efcdab89 	.word	0xefcdab89
     4e4:	00014d2c 	.word	0x00014d2c

000004e8 <main>:

int main(void)
{
     4e8:	b508      	push	{r3, lr}
    hal_setup(CLOCK_FAST);
     4ea:	2000      	movs	r0, #0
     4ec:	f013 fa60 	bl	139b0 <hal_setup>

    // marker for automated testing
    hal_send_str("==========================");
     4f0:	4805      	ldr	r0, [pc, #20]	@ (508 <main+0x20>)
     4f2:	f013 fa5f 	bl	139b4 <hal_send_str>
    test_sign();
     4f6:	f7ff fec9 	bl	28c <test_sign.isra.0>
    test_wrong_pk();
     4fa:	f7ff fe7d 	bl	1f8 <test_wrong_pk.isra.0>
    hal_send_str("#");
     4fe:	4803      	ldr	r0, [pc, #12]	@ (50c <main+0x24>)
     500:	f013 fa58 	bl	139b4 <hal_send_str>
    return 0;
}
     504:	2000      	movs	r0, #0
     506:	bd08      	pop	{r3, pc}
     508:	00014e68 	.word	0x00014e68
     50c:	00014e84 	.word	0x00014e84

00000510 <keccak_absorb.constprop.0>:
 *              - uint32_t r:        rate in bytes (e.g., 168 for SHAKE128)
 *              - const uint8_t *m:  pointer to input to be absorbed into s
 *              - size_t mlen:       length of input in bytes
 *              - uint8_t p:         domain-separation byte for different Keccak-derived functions
 **************************************************/
static void keccak_absorb(uint64_t *s,
     510:	b570      	push	{r4, r5, r6, lr}
     512:	b082      	sub	sp, #8
    uint32_t r,
    const uint8_t *m, size_t mlen,
    uint8_t p)
{
  while (mlen >= r)
     514:	2a87      	cmp	r2, #135	@ 0x87
static void keccak_absorb(uint64_t *s,
     516:	4614      	mov	r4, r2
     518:	f88d 3007 	strb.w	r3, [sp, #7]
     51c:	4606      	mov	r6, r0
     51e:	460d      	mov	r5, r1
  while (mlen >= r)
     520:	d90d      	bls.n	53e <keccak_absorb.constprop.0+0x2e>
  {
    KeccakF1600_StateXORBytes(s, m, 0, r);
     522:	4629      	mov	r1, r5
     524:	2388      	movs	r3, #136	@ 0x88
     526:	2200      	movs	r2, #0
     528:	4630      	mov	r0, r6
     52a:	f001 f969 	bl	1800 <KeccakF1600_StateXORBytes>
    KeccakF1600_StatePermute(s);
    mlen -= r;
     52e:	3c88      	subs	r4, #136	@ 0x88
    KeccakF1600_StatePermute(s);
     530:	4630      	mov	r0, r6
     532:	f001 fce5 	bl	1f00 <KeccakF1600_StatePermute>
  while (mlen >= r)
     536:	2c87      	cmp	r4, #135	@ 0x87
    m += r;
     538:	f105 0588 	add.w	r5, r5, #136	@ 0x88
  while (mlen >= r)
     53c:	d8f1      	bhi.n	522 <keccak_absorb.constprop.0+0x12>
  }

  if(mlen > 0){
     53e:	b994      	cbnz	r4, 566 <keccak_absorb.constprop.0+0x56>

  if(mlen == r-1){
    p |= 128;
    KeccakF1600_StateXORBytes(s, &p, mlen, 1);
  } else {
    KeccakF1600_StateXORBytes(s, &p, mlen, 1);
     540:	4622      	mov	r2, r4
     542:	f10d 0107 	add.w	r1, sp, #7
     546:	4630      	mov	r0, r6
     548:	2301      	movs	r3, #1
     54a:	f001 f959 	bl	1800 <KeccakF1600_StateXORBytes>
    p = 128;
     54e:	2480      	movs	r4, #128	@ 0x80
    KeccakF1600_StateXORBytes(s, &p, r-1, 1);
     550:	2301      	movs	r3, #1
     552:	2287      	movs	r2, #135	@ 0x87
     554:	f10d 0107 	add.w	r1, sp, #7
     558:	4630      	mov	r0, r6
    p = 128;
     55a:	f88d 4007 	strb.w	r4, [sp, #7]
    KeccakF1600_StateXORBytes(s, &p, r-1, 1);
     55e:	f001 f94f 	bl	1800 <KeccakF1600_StateXORBytes>
  }
}
     562:	b002      	add	sp, #8
     564:	bd70      	pop	{r4, r5, r6, pc}
    KeccakF1600_StateXORBytes(s, m, 0, mlen);
     566:	4623      	mov	r3, r4
     568:	2200      	movs	r2, #0
     56a:	4629      	mov	r1, r5
     56c:	4630      	mov	r0, r6
     56e:	f001 f947 	bl	1800 <KeccakF1600_StateXORBytes>
  if(mlen == r-1){
     572:	2c87      	cmp	r4, #135	@ 0x87
     574:	d1e4      	bne.n	540 <keccak_absorb.constprop.0+0x30>
    p |= 128;
     576:	f89d 5007 	ldrb.w	r5, [sp, #7]
    KeccakF1600_StateXORBytes(s, &p, mlen, 1);
     57a:	2301      	movs	r3, #1
    p |= 128;
     57c:	f065 057f 	orn	r5, r5, #127	@ 0x7f
    KeccakF1600_StateXORBytes(s, &p, mlen, 1);
     580:	4622      	mov	r2, r4
     582:	f10d 0107 	add.w	r1, sp, #7
     586:	4630      	mov	r0, r6
    p |= 128;
     588:	f88d 5007 	strb.w	r5, [sp, #7]
    KeccakF1600_StateXORBytes(s, &p, mlen, 1);
     58c:	f001 f938 	bl	1800 <KeccakF1600_StateXORBytes>
}
     590:	b002      	add	sp, #8
     592:	bd70      	pop	{r4, r5, r6, pc}

00000594 <keccak_absorb.constprop.1>:
static void keccak_absorb(uint64_t *s,
     594:	b570      	push	{r4, r5, r6, lr}
     596:	b082      	sub	sp, #8
  while (mlen >= r)
     598:	2aa7      	cmp	r2, #167	@ 0xa7
static void keccak_absorb(uint64_t *s,
     59a:	4614      	mov	r4, r2
     59c:	f88d 3007 	strb.w	r3, [sp, #7]
     5a0:	4606      	mov	r6, r0
     5a2:	460d      	mov	r5, r1
  while (mlen >= r)
     5a4:	d90d      	bls.n	5c2 <keccak_absorb.constprop.1+0x2e>
    KeccakF1600_StateXORBytes(s, m, 0, r);
     5a6:	4629      	mov	r1, r5
     5a8:	23a8      	movs	r3, #168	@ 0xa8
     5aa:	2200      	movs	r2, #0
     5ac:	4630      	mov	r0, r6
     5ae:	f001 f927 	bl	1800 <KeccakF1600_StateXORBytes>
    mlen -= r;
     5b2:	3ca8      	subs	r4, #168	@ 0xa8
    KeccakF1600_StatePermute(s);
     5b4:	4630      	mov	r0, r6
     5b6:	f001 fca3 	bl	1f00 <KeccakF1600_StatePermute>
  while (mlen >= r)
     5ba:	2ca7      	cmp	r4, #167	@ 0xa7
    m += r;
     5bc:	f105 05a8 	add.w	r5, r5, #168	@ 0xa8
  while (mlen >= r)
     5c0:	d8f1      	bhi.n	5a6 <keccak_absorb.constprop.1+0x12>
  if(mlen > 0){
     5c2:	b994      	cbnz	r4, 5ea <keccak_absorb.constprop.1+0x56>
    KeccakF1600_StateXORBytes(s, &p, mlen, 1);
     5c4:	4622      	mov	r2, r4
     5c6:	f10d 0107 	add.w	r1, sp, #7
     5ca:	4630      	mov	r0, r6
     5cc:	2301      	movs	r3, #1
     5ce:	f001 f917 	bl	1800 <KeccakF1600_StateXORBytes>
    p = 128;
     5d2:	2480      	movs	r4, #128	@ 0x80
    KeccakF1600_StateXORBytes(s, &p, r-1, 1);
     5d4:	2301      	movs	r3, #1
     5d6:	22a7      	movs	r2, #167	@ 0xa7
     5d8:	f10d 0107 	add.w	r1, sp, #7
     5dc:	4630      	mov	r0, r6
    p = 128;
     5de:	f88d 4007 	strb.w	r4, [sp, #7]
    KeccakF1600_StateXORBytes(s, &p, r-1, 1);
     5e2:	f001 f90d 	bl	1800 <KeccakF1600_StateXORBytes>
}
     5e6:	b002      	add	sp, #8
     5e8:	bd70      	pop	{r4, r5, r6, pc}
    KeccakF1600_StateXORBytes(s, m, 0, mlen);
     5ea:	4623      	mov	r3, r4
     5ec:	2200      	movs	r2, #0
     5ee:	4629      	mov	r1, r5
     5f0:	4630      	mov	r0, r6
     5f2:	f001 f905 	bl	1800 <KeccakF1600_StateXORBytes>
  if(mlen == r-1){
     5f6:	2ca7      	cmp	r4, #167	@ 0xa7
     5f8:	d1e4      	bne.n	5c4 <keccak_absorb.constprop.1+0x30>
    p |= 128;
     5fa:	f89d 5007 	ldrb.w	r5, [sp, #7]
    KeccakF1600_StateXORBytes(s, &p, mlen, 1);
     5fe:	2301      	movs	r3, #1
    p |= 128;
     600:	f065 057f 	orn	r5, r5, #127	@ 0x7f
    KeccakF1600_StateXORBytes(s, &p, mlen, 1);
     604:	4622      	mov	r2, r4
     606:	f10d 0107 	add.w	r1, sp, #7
     60a:	4630      	mov	r0, r6
    p |= 128;
     60c:	f88d 5007 	strb.w	r5, [sp, #7]
    KeccakF1600_StateXORBytes(s, &p, mlen, 1);
     610:	f001 f8f6 	bl	1800 <KeccakF1600_StateXORBytes>
}
     614:	b002      	add	sp, #8
     616:	bd70      	pop	{r4, r5, r6, pc}

00000618 <shake128_inc_init>:
 **************************************************/
static void keccak_inc_init(uint64_t *s_inc) {
    size_t i;

    for (i = 0; i < 25; ++i) {
        s_inc[i] = 0;
     618:	ed9f 7b07 	vldr	d7, [pc, #28]	@ 638 <shake128_inc_init+0x20>
     61c:	f1a0 0308 	sub.w	r3, r0, #8
     620:	f100 02c0 	add.w	r2, r0, #192	@ 0xc0
     624:	3308      	adds	r3, #8
    for (i = 0; i < 25; ++i) {
     626:	4293      	cmp	r3, r2
        s_inc[i] = 0;
     628:	ed83 7b00 	vstr	d7, [r3]
    for (i = 0; i < 25; ++i) {
     62c:	d1fa      	bne.n	624 <shake128_inc_init+0xc>
    }
    s_inc[25] = 0;
     62e:	ed80 7b32 	vstr	d7, [r0, #200]	@ 0xc8
    keccak_inc_init(state->ctx);
#ifdef PROFILE_HASHING
  uint64_t t1 = hal_get_time();
  hash_cycles += (t1-t0);
#endif
}
     632:	4770      	bx	lr
     634:	f3af 8000 	nop.w
	...

00000640 <shake128_inc_absorb>:

void shake128_inc_absorb(shake128incctx *state, const uint8_t *input, size_t inlen) {
     640:	e92d 4370 	stmdb	sp!, {r4, r5, r6, r8, r9, lr}
     644:	4615      	mov	r5, r2
     646:	4604      	mov	r4, r0
    while (mlen + s_inc[25] >= r) {
     648:	e9d0 2032 	ldrd	r2, r0, [r0, #200]	@ 0xc8
     64c:	18ab      	adds	r3, r5, r2
     64e:	f140 0000 	adc.w	r0, r0, #0
     652:	2ba8      	cmp	r3, #168	@ 0xa8
     654:	f170 0000 	sbcs.w	r0, r0, #0
void shake128_inc_absorb(shake128incctx *state, const uint8_t *input, size_t inlen) {
     658:	460e      	mov	r6, r1
    while (mlen + s_inc[25] >= r) {
     65a:	d31f      	bcc.n	69c <shake128_inc_absorb+0x5c>
        s_inc[25] = 0;
     65c:	f04f 0800 	mov.w	r8, #0
     660:	f04f 0900 	mov.w	r9, #0
        KeccakF1600_StateXORBytes(s_inc, m, s_inc[25], r-s_inc[25]);
     664:	f1c2 03a8 	rsb	r3, r2, #168	@ 0xa8
     668:	4631      	mov	r1, r6
     66a:	4620      	mov	r0, r4
     66c:	f001 f8c8 	bl	1800 <KeccakF1600_StateXORBytes>
        mlen -= (size_t)(r - s_inc[25]);
     670:	f8d4 30c8 	ldr.w	r3, [r4, #200]	@ 0xc8
        KeccakF1600_StatePermute(s_inc);
     674:	4620      	mov	r0, r4
        mlen -= (size_t)(r - s_inc[25]);
     676:	f1a3 02a8 	sub.w	r2, r3, #168	@ 0xa8
        s_inc[25] = 0;
     67a:	e9c4 8932 	strd	r8, r9, [r4, #200]	@ 0xc8
        m += r - s_inc[25];
     67e:	f1c3 03a8 	rsb	r3, r3, #168	@ 0xa8
        mlen -= (size_t)(r - s_inc[25]);
     682:	4415      	add	r5, r2
        m += r - s_inc[25];
     684:	441e      	add	r6, r3
        KeccakF1600_StatePermute(s_inc);
     686:	f001 fc3b 	bl	1f00 <KeccakF1600_StatePermute>
    while (mlen + s_inc[25] >= r) {
     68a:	e9d4 2032 	ldrd	r2, r0, [r4, #200]	@ 0xc8
     68e:	1953      	adds	r3, r2, r5
     690:	f140 0000 	adc.w	r0, r0, #0
     694:	2ba8      	cmp	r3, #168	@ 0xa8
     696:	f170 0000 	sbcs.w	r0, r0, #0
     69a:	d2e3      	bcs.n	664 <shake128_inc_absorb+0x24>
    KeccakF1600_StateXORBytes(s_inc, m, s_inc[25], mlen);
     69c:	462b      	mov	r3, r5
     69e:	4631      	mov	r1, r6
     6a0:	4620      	mov	r0, r4
     6a2:	f001 f8ad 	bl	1800 <KeccakF1600_StateXORBytes>
    s_inc[25] += mlen;
     6a6:	e9d4 3232 	ldrd	r3, r2, [r4, #200]	@ 0xc8
     6aa:	195b      	adds	r3, r3, r5
     6ac:	f142 0200 	adc.w	r2, r2, #0
     6b0:	e9c4 3232 	strd	r3, r2, [r4, #200]	@ 0xc8
    keccak_inc_absorb(state->ctx, SHAKE128_RATE, input, inlen);
#ifdef PROFILE_HASHING
  uint64_t t1 = hal_get_time();
  hash_cycles += (t1-t0);
#endif
}
     6b4:	e8bd 8370 	ldmia.w	sp!, {r4, r5, r6, r8, r9, pc}

000006b8 <shake128_inc_finalize>:

void shake128_inc_finalize(shake128incctx *state) {
     6b8:	b510      	push	{r4, lr}
    if(s_inc[25] == r-1){
     6ba:	e9d0 2132 	ldrd	r2, r1, [r0, #200]	@ 0xc8
void shake128_inc_finalize(shake128incctx *state) {
     6be:	b082      	sub	sp, #8
     6c0:	231f      	movs	r3, #31
     6c2:	f88d 3007 	strb.w	r3, [sp, #7]
    if(s_inc[25] == r-1){
     6c6:	f1a2 03a7 	sub.w	r3, r2, #167	@ 0xa7
     6ca:	430b      	orrs	r3, r1
void shake128_inc_finalize(shake128incctx *state) {
     6cc:	4604      	mov	r4, r0
    if(s_inc[25] == r-1){
     6ce:	d014      	beq.n	6fa <shake128_inc_finalize+0x42>
      KeccakF1600_StateXORBytes(s_inc, &p, s_inc[25], 1);
     6d0:	2301      	movs	r3, #1
     6d2:	f10d 0107 	add.w	r1, sp, #7
     6d6:	f001 f893 	bl	1800 <KeccakF1600_StateXORBytes>
      p = 128;
     6da:	2080      	movs	r0, #128	@ 0x80
     6dc:	f88d 0007 	strb.w	r0, [sp, #7]
      KeccakF1600_StateXORBytes(s_inc, &p, r-1, 1);
     6e0:	2301      	movs	r3, #1
     6e2:	22a7      	movs	r2, #167	@ 0xa7
     6e4:	f10d 0107 	add.w	r1, sp, #7
     6e8:	4620      	mov	r0, r4
     6ea:	f001 f889 	bl	1800 <KeccakF1600_StateXORBytes>
    s_inc[25] = 0;
     6ee:	2200      	movs	r2, #0
     6f0:	2300      	movs	r3, #0
     6f2:	e9c4 2332 	strd	r2, r3, [r4, #200]	@ 0xc8
    keccak_inc_finalize(state->ctx, SHAKE128_RATE, 0x1F);
#ifdef PROFILE_HASHING
  uint64_t t1 = hal_get_time();
  hash_cycles += (t1-t0);
#endif
}
     6f6:	b002      	add	sp, #8
     6f8:	bd10      	pop	{r4, pc}
      p |= 128;
     6fa:	219f      	movs	r1, #159	@ 0x9f
     6fc:	f88d 1007 	strb.w	r1, [sp, #7]
      KeccakF1600_StateXORBytes(s_inc, &p, s_inc[25], 1);
     700:	2301      	movs	r3, #1
     702:	22a7      	movs	r2, #167	@ 0xa7
     704:	f10d 0107 	add.w	r1, sp, #7
     708:	f001 f87a 	bl	1800 <KeccakF1600_StateXORBytes>
     70c:	e7ef      	b.n	6ee <shake128_inc_finalize+0x36>
     70e:	bf00      	nop

00000710 <shake128_inc_squeeze>:

void shake128_inc_squeeze(uint8_t *output, size_t outlen, shake128incctx *state) {
     710:	e92d 43f8 	stmdb	sp!, {r3, r4, r5, r6, r7, r8, r9, lr}
    if(outlen < s_inc[25])
     714:	e9d2 6932 	ldrd	r6, r9, [r2, #200]	@ 0xc8
     718:	f04f 0800 	mov.w	r8, #0
     71c:	42b1      	cmp	r1, r6
     71e:	eb78 0309 	sbcs.w	r3, r8, r9
void shake128_inc_squeeze(uint8_t *output, size_t outlen, shake128incctx *state) {
     722:	4615      	mov	r5, r2
     724:	460c      	mov	r4, r1
     726:	4607      	mov	r7, r0
    KeccakF1600_StateExtractBytes(s_inc, h, r-s_inc[25], len);
     728:	f1c6 02a8 	rsb	r2, r6, #168	@ 0xa8
    if(outlen < s_inc[25])
     72c:	d20d      	bcs.n	74a <shake128_inc_squeeze+0x3a>
    KeccakF1600_StateExtractBytes(s_inc, h, r-s_inc[25], len);
     72e:	460b      	mov	r3, r1
     730:	4601      	mov	r1, r0
     732:	4628      	mov	r0, r5
     734:	f001 f9e4 	bl	1b00 <KeccakF1600_StateExtractBytes>
    s_inc[25] -= len;
     738:	e9d5 3232 	ldrd	r3, r2, [r5, #200]	@ 0xc8
     73c:	1b1b      	subs	r3, r3, r4
     73e:	f162 0200 	sbc.w	r2, r2, #0
     742:	e9c5 3232 	strd	r3, r2, [r5, #200]	@ 0xc8
    keccak_inc_squeeze(output, outlen, state->ctx, SHAKE128_RATE);
#ifdef PROFILE_HASHING
  uint64_t t1 = hal_get_time();
  hash_cycles += (t1-t0);
#endif
}
     746:	e8bd 83f8 	ldmia.w	sp!, {r3, r4, r5, r6, r7, r8, r9, pc}
    KeccakF1600_StateExtractBytes(s_inc, h, r-s_inc[25], len);
     74a:	4633      	mov	r3, r6
     74c:	4601      	mov	r1, r0
     74e:	4628      	mov	r0, r5
     750:	f001 f9d6 	bl	1b00 <KeccakF1600_StateExtractBytes>
    s_inc[25] -= len;
     754:	f8d5 30c8 	ldr.w	r3, [r5, #200]	@ 0xc8
     758:	1b9b      	subs	r3, r3, r6
     75a:	f8c5 30c8 	str.w	r3, [r5, #200]	@ 0xc8
     75e:	f8d5 30cc 	ldr.w	r3, [r5, #204]	@ 0xcc
    h += len;
     762:	4437      	add	r7, r6
    s_inc[25] -= len;
     764:	eb63 0309 	sbc.w	r3, r3, r9
    while (outlen > 0) {
     768:	1ba6      	subs	r6, r4, r6
    s_inc[25] -= len;
     76a:	f8c5 30cc 	str.w	r3, [r5, #204]	@ 0xcc
    while (outlen > 0) {
     76e:	d0ea      	beq.n	746 <shake128_inc_squeeze+0x36>
        KeccakF1600_StatePermute(s_inc);
     770:	4628      	mov	r0, r5
     772:	f001 fbc5 	bl	1f00 <KeccakF1600_StatePermute>
        if(outlen < r)
     776:	2ea8      	cmp	r6, #168	@ 0xa8
     778:	4634      	mov	r4, r6
     77a:	bf28      	it	cs
     77c:	24a8      	movcs	r4, #168	@ 0xa8
        KeccakF1600_StateExtractBytes(s_inc, h, 0, len);
     77e:	4623      	mov	r3, r4
     780:	4639      	mov	r1, r7
     782:	2200      	movs	r2, #0
     784:	4628      	mov	r0, r5
     786:	f001 f9bb 	bl	1b00 <KeccakF1600_StateExtractBytes>
        s_inc[25] = r - len;
     78a:	f1c4 03a8 	rsb	r3, r4, #168	@ 0xa8
    while (outlen > 0) {
     78e:	1b36      	subs	r6, r6, r4
        s_inc[25] = r - len;
     790:	e9c5 3832 	strd	r3, r8, [r5, #200]	@ 0xc8
        h += len;
     794:	4427      	add	r7, r4
    while (outlen > 0) {
     796:	d1eb      	bne.n	770 <shake128_inc_squeeze+0x60>
}
     798:	e8bd 83f8 	ldmia.w	sp!, {r3, r4, r5, r6, r7, r8, r9, pc}

0000079c <shake128_inc_ctx_clone>:

void shake128_inc_ctx_clone(shake128incctx* dest, const shake128incctx *src) {
    memcpy(dest, src, sizeof(shake128incctx));
     79c:	22d0      	movs	r2, #208	@ 0xd0
     79e:	f013 bd0d 	b.w	141bc <memcpy>
     7a2:	bf00      	nop

000007a4 <shake128_inc_ctx_release>:
}

void shake128_inc_ctx_release(shake128incctx *state) {
     7a4:	4770      	bx	lr
     7a6:	bf00      	nop

000007a8 <shake256_inc_init>:
    (void) state;
}

void shake256_inc_init(shake256incctx *state) {
     7a8:	ed9f 7b07 	vldr	d7, [pc, #28]	@ 7c8 <shake256_inc_init+0x20>
     7ac:	f1a0 0308 	sub.w	r3, r0, #8
     7b0:	f100 02c0 	add.w	r2, r0, #192	@ 0xc0
     7b4:	3308      	adds	r3, #8
     7b6:	4293      	cmp	r3, r2
     7b8:	ed83 7b00 	vstr	d7, [r3]
     7bc:	d1fa      	bne.n	7b4 <shake256_inc_init+0xc>
     7be:	ed80 7b32 	vstr	d7, [r0, #200]	@ 0xc8
     7c2:	4770      	bx	lr
     7c4:	f3af 8000 	nop.w
	...

000007d0 <shake256_inc_absorb>:
  uint64_t t1 = hal_get_time();
  hash_cycles += (t1-t0);
#endif
}

void shake256_inc_absorb(shake256incctx *state, const uint8_t *input, size_t inlen) {
     7d0:	e92d 4370 	stmdb	sp!, {r4, r5, r6, r8, r9, lr}
     7d4:	4615      	mov	r5, r2
     7d6:	4604      	mov	r4, r0
    while (mlen + s_inc[25] >= r) {
     7d8:	e9d0 2032 	ldrd	r2, r0, [r0, #200]	@ 0xc8
     7dc:	18ab      	adds	r3, r5, r2
     7de:	f140 0000 	adc.w	r0, r0, #0
     7e2:	2b88      	cmp	r3, #136	@ 0x88
     7e4:	f170 0000 	sbcs.w	r0, r0, #0
void shake256_inc_absorb(shake256incctx *state, const uint8_t *input, size_t inlen) {
     7e8:	460e      	mov	r6, r1
    while (mlen + s_inc[25] >= r) {
     7ea:	d31f      	bcc.n	82c <shake256_inc_absorb+0x5c>
        s_inc[25] = 0;
     7ec:	f04f 0800 	mov.w	r8, #0
     7f0:	f04f 0900 	mov.w	r9, #0
        KeccakF1600_StateXORBytes(s_inc, m, s_inc[25], r-s_inc[25]);
     7f4:	f1c2 0388 	rsb	r3, r2, #136	@ 0x88
     7f8:	4631      	mov	r1, r6
     7fa:	4620      	mov	r0, r4
     7fc:	f001 f800 	bl	1800 <KeccakF1600_StateXORBytes>
        mlen -= (size_t)(r - s_inc[25]);
     800:	f8d4 30c8 	ldr.w	r3, [r4, #200]	@ 0xc8
        KeccakF1600_StatePermute(s_inc);
     804:	4620      	mov	r0, r4
        mlen -= (size_t)(r - s_inc[25]);
     806:	f1a3 0288 	sub.w	r2, r3, #136	@ 0x88
        s_inc[25] = 0;
     80a:	e9c4 8932 	strd	r8, r9, [r4, #200]	@ 0xc8
        m += r - s_inc[25];
     80e:	f1c3 0388 	rsb	r3, r3, #136	@ 0x88
        mlen -= (size_t)(r - s_inc[25]);
     812:	4415      	add	r5, r2
        m += r - s_inc[25];
     814:	441e      	add	r6, r3
        KeccakF1600_StatePermute(s_inc);
     816:	f001 fb73 	bl	1f00 <KeccakF1600_StatePermute>
    while (mlen + s_inc[25] >= r) {
     81a:	e9d4 2032 	ldrd	r2, r0, [r4, #200]	@ 0xc8
     81e:	1953      	adds	r3, r2, r5
     820:	f140 0000 	adc.w	r0, r0, #0
     824:	2b88      	cmp	r3, #136	@ 0x88
     826:	f170 0000 	sbcs.w	r0, r0, #0
     82a:	d2e3      	bcs.n	7f4 <shake256_inc_absorb+0x24>
    KeccakF1600_StateXORBytes(s_inc, m, s_inc[25], mlen);
     82c:	462b      	mov	r3, r5
     82e:	4631      	mov	r1, r6
     830:	4620      	mov	r0, r4
     832:	f000 ffe5 	bl	1800 <KeccakF1600_StateXORBytes>
    s_inc[25] += mlen;
     836:	e9d4 3232 	ldrd	r3, r2, [r4, #200]	@ 0xc8
     83a:	195b      	adds	r3, r3, r5
     83c:	f142 0200 	adc.w	r2, r2, #0
     840:	e9c4 3232 	strd	r3, r2, [r4, #200]	@ 0xc8
    keccak_inc_absorb(state->ctx, SHAKE256_RATE, input, inlen);
#ifdef PROFILE_HASHING
  uint64_t t1 = hal_get_time();
  hash_cycles += (t1-t0);
#endif
}
     844:	e8bd 8370 	ldmia.w	sp!, {r4, r5, r6, r8, r9, pc}

00000848 <shake256_inc_finalize>:

void shake256_inc_finalize(shake256incctx *state) {
     848:	b510      	push	{r4, lr}
    if(s_inc[25] == r-1){
     84a:	e9d0 2132 	ldrd	r2, r1, [r0, #200]	@ 0xc8
void shake256_inc_finalize(shake256incctx *state) {
     84e:	b082      	sub	sp, #8
     850:	231f      	movs	r3, #31
     852:	f88d 3007 	strb.w	r3, [sp, #7]
    if(s_inc[25] == r-1){
     856:	f1a2 0387 	sub.w	r3, r2, #135	@ 0x87
     85a:	430b      	orrs	r3, r1
void shake256_inc_finalize(shake256incctx *state) {
     85c:	4604      	mov	r4, r0
    if(s_inc[25] == r-1){
     85e:	d014      	beq.n	88a <shake256_inc_finalize+0x42>
      KeccakF1600_StateXORBytes(s_inc, &p, s_inc[25], 1);
     860:	2301      	movs	r3, #1
     862:	f10d 0107 	add.w	r1, sp, #7
     866:	f000 ffcb 	bl	1800 <KeccakF1600_StateXORBytes>
      p = 128;
     86a:	2080      	movs	r0, #128	@ 0x80
     86c:	f88d 0007 	strb.w	r0, [sp, #7]
      KeccakF1600_StateXORBytes(s_inc, &p, r-1, 1);
     870:	2301      	movs	r3, #1
     872:	2287      	movs	r2, #135	@ 0x87
     874:	f10d 0107 	add.w	r1, sp, #7
     878:	4620      	mov	r0, r4
     87a:	f000 ffc1 	bl	1800 <KeccakF1600_StateXORBytes>
    s_inc[25] = 0;
     87e:	2200      	movs	r2, #0
     880:	2300      	movs	r3, #0
     882:	e9c4 2332 	strd	r2, r3, [r4, #200]	@ 0xc8
    keccak_inc_finalize(state->ctx, SHAKE256_RATE, 0x1F);
#ifdef PROFILE_HASHING
  uint64_t t1 = hal_get_time();
  hash_cycles += (t1-t0);
#endif
}
     886:	b002      	add	sp, #8
     888:	bd10      	pop	{r4, pc}
      p |= 128;
     88a:	219f      	movs	r1, #159	@ 0x9f
     88c:	f88d 1007 	strb.w	r1, [sp, #7]
      KeccakF1600_StateXORBytes(s_inc, &p, s_inc[25], 1);
     890:	2301      	movs	r3, #1
     892:	2287      	movs	r2, #135	@ 0x87
     894:	f10d 0107 	add.w	r1, sp, #7
     898:	f000 ffb2 	bl	1800 <KeccakF1600_StateXORBytes>
     89c:	e7ef      	b.n	87e <shake256_inc_finalize+0x36>
     89e:	bf00      	nop

000008a0 <shake256_inc_squeeze>:

void shake256_inc_squeeze(uint8_t *output, size_t outlen, shake256incctx *state) {
     8a0:	e92d 43f8 	stmdb	sp!, {r3, r4, r5, r6, r7, r8, r9, lr}
    if(outlen < s_inc[25])
     8a4:	e9d2 6932 	ldrd	r6, r9, [r2, #200]	@ 0xc8
     8a8:	f04f 0800 	mov.w	r8, #0
     8ac:	42b1      	cmp	r1, r6
     8ae:	eb78 0309 	sbcs.w	r3, r8, r9
void shake256_inc_squeeze(uint8_t *output, size_t outlen, shake256incctx *state) {
     8b2:	4615      	mov	r5, r2
     8b4:	460c      	mov	r4, r1
     8b6:	4607      	mov	r7, r0
    KeccakF1600_StateExtractBytes(s_inc, h, r-s_inc[25], len);
     8b8:	f1c6 0288 	rsb	r2, r6, #136	@ 0x88
    if(outlen < s_inc[25])
     8bc:	d20d      	bcs.n	8da <shake256_inc_squeeze+0x3a>
    KeccakF1600_StateExtractBytes(s_inc, h, r-s_inc[25], len);
     8be:	460b      	mov	r3, r1
     8c0:	4601      	mov	r1, r0
     8c2:	4628      	mov	r0, r5
     8c4:	f001 f91c 	bl	1b00 <KeccakF1600_StateExtractBytes>
    s_inc[25] -= len;
     8c8:	e9d5 3232 	ldrd	r3, r2, [r5, #200]	@ 0xc8
     8cc:	1b1b      	subs	r3, r3, r4
     8ce:	f162 0200 	sbc.w	r2, r2, #0
     8d2:	e9c5 3232 	strd	r3, r2, [r5, #200]	@ 0xc8
    keccak_inc_squeeze(output, outlen, state->ctx, SHAKE256_RATE);
#ifdef PROFILE_HASHING
  uint64_t t1 = hal_get_time();
  hash_cycles += (t1-t0);
#endif
}
     8d6:	e8bd 83f8 	ldmia.w	sp!, {r3, r4, r5, r6, r7, r8, r9, pc}
    KeccakF1600_StateExtractBytes(s_inc, h, r-s_inc[25], len);
     8da:	4633      	mov	r3, r6
     8dc:	4601      	mov	r1, r0
     8de:	4628      	mov	r0, r5
     8e0:	f001 f90e 	bl	1b00 <KeccakF1600_StateExtractBytes>
    s_inc[25] -= len;
     8e4:	f8d5 30c8 	ldr.w	r3, [r5, #200]	@ 0xc8
     8e8:	1b9b      	subs	r3, r3, r6
     8ea:	f8c5 30c8 	str.w	r3, [r5, #200]	@ 0xc8
     8ee:	f8d5 30cc 	ldr.w	r3, [r5, #204]	@ 0xcc
    h += len;
     8f2:	4437      	add	r7, r6
    s_inc[25] -= len;
     8f4:	eb63 0309 	sbc.w	r3, r3, r9
    while (outlen > 0) {
     8f8:	1ba6      	subs	r6, r4, r6
    s_inc[25] -= len;
     8fa:	f8c5 30cc 	str.w	r3, [r5, #204]	@ 0xcc
    while (outlen > 0) {
     8fe:	d0ea      	beq.n	8d6 <shake256_inc_squeeze+0x36>
        KeccakF1600_StatePermute(s_inc);
     900:	4628      	mov	r0, r5
     902:	f001 fafd 	bl	1f00 <KeccakF1600_StatePermute>
        if(outlen < r)
     906:	2e88      	cmp	r6, #136	@ 0x88
     908:	4634      	mov	r4, r6
     90a:	bf28      	it	cs
     90c:	2488      	movcs	r4, #136	@ 0x88
        KeccakF1600_StateExtractBytes(s_inc, h, 0, len);
     90e:	4623      	mov	r3, r4
     910:	4639      	mov	r1, r7
     912:	2200      	movs	r2, #0
     914:	4628      	mov	r0, r5
     916:	f001 f8f3 	bl	1b00 <KeccakF1600_StateExtractBytes>
        s_inc[25] = r - len;
     91a:	f1c4 0388 	rsb	r3, r4, #136	@ 0x88
    while (outlen > 0) {
     91e:	1b36      	subs	r6, r6, r4
        s_inc[25] = r - len;
     920:	e9c5 3832 	strd	r3, r8, [r5, #200]	@ 0xc8
        h += len;
     924:	4427      	add	r7, r4
    while (outlen > 0) {
     926:	d1eb      	bne.n	900 <shake256_inc_squeeze+0x60>
}
     928:	e8bd 83f8 	ldmia.w	sp!, {r3, r4, r5, r6, r7, r8, r9, pc}

0000092c <shake256_inc_ctx_clone>:

void shake256_inc_ctx_clone(shake256incctx* dest, const shake256incctx *src) {
     92c:	22d0      	movs	r2, #208	@ 0xd0
     92e:	f013 bc45 	b.w	141bc <memcpy>
     932:	bf00      	nop

00000934 <shake256_inc_ctx_release>:
    memcpy(dest, src, sizeof(shake256incctx));
}

void shake256_inc_ctx_release(shake256incctx *state) {
     934:	4770      	bx	lr
     936:	bf00      	nop

00000938 <cshake128_simple_absorb>:
}

/********** cSHAKE128 ***********/

void cshake128_simple_absorb(shake128ctx *state, uint16_t cstm, const uint8_t *in, size_t inlen)
{
     938:	b570      	push	{r4, r5, r6, lr}

  uint8_t sep[8];
  size_t i;

  for (i = 0; i < 25; i++)
    state->ctx[i] = 0;
     93a:	ed9f 7b15 	vldr	d7, [pc, #84]	@ 990 <cshake128_simple_absorb+0x58>
{
     93e:	b082      	sub	sp, #8
     940:	4604      	mov	r4, r0
     942:	4615      	mov	r5, r2
     944:	461e      	mov	r6, r3
     946:	f1a0 0c08 	sub.w	ip, r0, #8
     94a:	f100 0ec0 	add.w	lr, r0, #192	@ 0xc0
    state->ctx[i] = 0;
     94e:	f10c 0c08 	add.w	ip, ip, #8
  for (i = 0; i < 25; i++)
     952:	45f4      	cmp	ip, lr
    state->ctx[i] = 0;
     954:	ed8c 7b00 	vstr	d7, [ip]
  for (i = 0; i < 25; i++)
     958:	d1f9      	bne.n	94e <cshake128_simple_absorb+0x16>

  /* Absorb customization (domain-separation) string */
  sep[0] = 0x01;
     95a:	4b0f      	ldr	r3, [pc, #60]	@ (998 <cshake128_simple_absorb+0x60>)
     95c:	9300      	str	r3, [sp, #0]
  sep[1] = 0xa8;
  sep[2] = 0x01;
  sep[3] = 0x00;
  sep[4] = 0x01;
     95e:	f241 0301 	movw	r3, #4097	@ 0x1001
     962:	f8ad 3004 	strh.w	r3, [sp, #4]
  sep[5] = 16; // fixed bitlen of cstm
  sep[6] = cstm & 0xff;
     966:	f8ad 1006 	strh.w	r1, [sp, #6]
  sep[7] = cstm >> 8;

  KeccakF1600_StateXORBytes(state->ctx, sep, 0, 8);
     96a:	2308      	movs	r3, #8
     96c:	4669      	mov	r1, sp
     96e:	2200      	movs	r2, #0
     970:	4620      	mov	r0, r4
     972:	f000 ff45 	bl	1800 <KeccakF1600_StateXORBytes>
  KeccakF1600_StatePermute(state->ctx);
     976:	4620      	mov	r0, r4
     978:	f001 fac2 	bl	1f00 <KeccakF1600_StatePermute>

  /* Absorb input */
  keccak_absorb(state->ctx, SHAKE128_RATE, in, inlen, 0x04);
     97c:	2304      	movs	r3, #4
     97e:	4632      	mov	r2, r6
     980:	4629      	mov	r1, r5
     982:	4620      	mov	r0, r4
     984:	f7ff fe06 	bl	594 <keccak_absorb.constprop.1>
#ifdef PROFILE_HASHING
  uint64_t t1 = hal_get_time();
  hash_cycles += (t1-t0);
#endif

}
     988:	b002      	add	sp, #8
     98a:	bd70      	pop	{r4, r5, r6, pc}
     98c:	f3af 8000 	nop.w
	...
     998:	0001a801 	.word	0x0001a801

0000099c <cshake128_simple_squeezeblocks>:


void cshake128_simple_squeezeblocks(uint8_t *output, size_t nblocks, shake128ctx *state)
     99c:	b189      	cbz	r1, 9c2 <cshake128_simple_squeezeblocks+0x26>
     99e:	b570      	push	{r4, r5, r6, lr}
     9a0:	4605      	mov	r5, r0
     9a2:	4616      	mov	r6, r2
     9a4:	460c      	mov	r4, r1
     9a6:	4630      	mov	r0, r6
     9a8:	f001 faaa 	bl	1f00 <KeccakF1600_StatePermute>
     9ac:	4629      	mov	r1, r5
     9ae:	23a8      	movs	r3, #168	@ 0xa8
     9b0:	2200      	movs	r2, #0
     9b2:	4630      	mov	r0, r6
     9b4:	f001 f8a4 	bl	1b00 <KeccakF1600_StateExtractBytes>
     9b8:	3c01      	subs	r4, #1
     9ba:	f105 05a8 	add.w	r5, r5, #168	@ 0xa8
     9be:	d1f2      	bne.n	9a6 <cshake128_simple_squeezeblocks+0xa>
     9c0:	bd70      	pop	{r4, r5, r6, pc}
     9c2:	4770      	bx	lr

000009c4 <cshake128_simple>:
#endif
}


void cshake128_simple(uint8_t *output, size_t outlen, uint16_t cstm, const uint8_t *in, size_t inlen)
{
     9c4:	e92d 4df0 	stmdb	sp!, {r4, r5, r6, r7, r8, sl, fp, lr}
     9c8:	b0b8      	sub	sp, #224	@ 0xe0
     9ca:	4607      	mov	r7, r0
     9cc:	9d40      	ldr	r5, [sp, #256]	@ 0x100
     9ce:	460e      	mov	r6, r1
     9d0:	4698      	mov	r8, r3
     9d2:	f10d 0c08 	add.w	ip, sp, #8
     9d6:	ab34      	add	r3, sp, #208	@ 0xd0
        s_inc[i] = 0;
     9d8:	2000      	movs	r0, #0
     9da:	2100      	movs	r1, #0
     9dc:	e9ec 0102 	strd	r0, r1, [ip, #8]!
    for (i = 0; i < 25; ++i) {
     9e0:	459c      	cmp	ip, r3
     9e2:	d1fb      	bne.n	9dc <cshake128_simple+0x18>
#endif

  keccak_inc_init(state.ctx);

  /* Absorb customization (domain-separation) string */
  sep[0] = 0x01;
     9e4:	4b46      	ldr	r3, [pc, #280]	@ (b00 <cshake128_simple+0x13c>)
     9e6:	9302      	str	r3, [sp, #8]
  sep[1] = 0xa8;
  sep[2] = 0x01;
  sep[3] = 0x00;
  sep[4] = 0x01;
     9e8:	f241 0301 	movw	r3, #4097	@ 0x1001
    s_inc[25] = 0;
     9ec:	e9cd 0136 	strd	r0, r1, [sp, #216]	@ 0xd8
  sep[5] = 16; // fixed bitlen of cstm
  sep[6] = cstm & 0xff;
     9f0:	f8ad 200e 	strh.w	r2, [sp, #14]
  sep[7] = cstm >> 8;

  KeccakF1600_StateXORBytes(state.ctx, sep, 0, 8);
     9f4:	a902      	add	r1, sp, #8
     9f6:	2200      	movs	r2, #0
  sep[4] = 0x01;
     9f8:	f8ad 300c 	strh.w	r3, [sp, #12]
  KeccakF1600_StateXORBytes(state.ctx, sep, 0, 8);
     9fc:	a804      	add	r0, sp, #16
     9fe:	2308      	movs	r3, #8
     a00:	f000 fefe 	bl	1800 <KeccakF1600_StateXORBytes>
  KeccakF1600_StatePermute(state.ctx);
     a04:	a804      	add	r0, sp, #16
     a06:	f001 fa7b 	bl	1f00 <KeccakF1600_StatePermute>
    while (mlen + s_inc[25] >= r) {
     a0a:	e9dd 2436 	ldrd	r2, r4, [sp, #216]	@ 0xd8
     a0e:	1953      	adds	r3, r2, r5
     a10:	f144 0400 	adc.w	r4, r4, #0
     a14:	2ba8      	cmp	r3, #168	@ 0xa8
     a16:	f174 0400 	sbcs.w	r4, r4, #0
     a1a:	d31e      	bcc.n	a5a <cshake128_simple+0x96>
        s_inc[25] = 0;
     a1c:	f04f 0a00 	mov.w	sl, #0
     a20:	f04f 0b00 	mov.w	fp, #0
        KeccakF1600_StateXORBytes(s_inc, m, s_inc[25], r-s_inc[25]);
     a24:	f1c2 03a8 	rsb	r3, r2, #168	@ 0xa8
     a28:	4641      	mov	r1, r8
     a2a:	a804      	add	r0, sp, #16
     a2c:	f000 fee8 	bl	1800 <KeccakF1600_StateXORBytes>
        mlen -= (size_t)(r - s_inc[25]);
     a30:	9b36      	ldr	r3, [sp, #216]	@ 0xd8
        KeccakF1600_StatePermute(s_inc);
     a32:	a804      	add	r0, sp, #16
        mlen -= (size_t)(r - s_inc[25]);
     a34:	f1a3 02a8 	sub.w	r2, r3, #168	@ 0xa8
        m += r - s_inc[25];
     a38:	f1c3 03a8 	rsb	r3, r3, #168	@ 0xa8
        mlen -= (size_t)(r - s_inc[25]);
     a3c:	4415      	add	r5, r2
        m += r - s_inc[25];
     a3e:	4498      	add	r8, r3
        s_inc[25] = 0;
     a40:	e9cd ab36 	strd	sl, fp, [sp, #216]	@ 0xd8
        KeccakF1600_StatePermute(s_inc);
     a44:	f001 fa5c 	bl	1f00 <KeccakF1600_StatePermute>
    while (mlen + s_inc[25] >= r) {
     a48:	e9dd 2436 	ldrd	r2, r4, [sp, #216]	@ 0xd8
     a4c:	1953      	adds	r3, r2, r5
     a4e:	f144 0400 	adc.w	r4, r4, #0
     a52:	2ba8      	cmp	r3, #168	@ 0xa8
     a54:	f174 0400 	sbcs.w	r4, r4, #0
     a58:	d2e4      	bcs.n	a24 <cshake128_simple+0x60>
    KeccakF1600_StateXORBytes(s_inc, m, s_inc[25], mlen);
     a5a:	4641      	mov	r1, r8
     a5c:	462b      	mov	r3, r5
     a5e:	a804      	add	r0, sp, #16
     a60:	f000 fece 	bl	1800 <KeccakF1600_StateXORBytes>
    s_inc[25] += mlen;
     a64:	9b36      	ldr	r3, [sp, #216]	@ 0xd8
     a66:	18ea      	adds	r2, r5, r3
     a68:	9b37      	ldr	r3, [sp, #220]	@ 0xdc
     a6a:	9236      	str	r2, [sp, #216]	@ 0xd8
     a6c:	f04f 0104 	mov.w	r1, #4
     a70:	f143 0300 	adc.w	r3, r3, #0
     a74:	f88d 1007 	strb.w	r1, [sp, #7]
    if(s_inc[25] == r-1){
     a78:	f1a2 01a7 	sub.w	r1, r2, #167	@ 0xa7
     a7c:	4319      	orrs	r1, r3
    s_inc[25] += mlen;
     a7e:	9337      	str	r3, [sp, #220]	@ 0xdc
    if(s_inc[25] == r-1){
     a80:	d032      	beq.n	ae8 <cshake128_simple+0x124>
      KeccakF1600_StateXORBytes(s_inc, &p, s_inc[25], 1);
     a82:	2301      	movs	r3, #1
     a84:	f10d 0107 	add.w	r1, sp, #7
     a88:	a804      	add	r0, sp, #16
     a8a:	f000 feb9 	bl	1800 <KeccakF1600_StateXORBytes>
      p = 128;
     a8e:	2380      	movs	r3, #128	@ 0x80
     a90:	f88d 3007 	strb.w	r3, [sp, #7]
      KeccakF1600_StateXORBytes(s_inc, &p, r-1, 1);
     a94:	f10d 0107 	add.w	r1, sp, #7
     a98:	2301      	movs	r3, #1
     a9a:	22a7      	movs	r2, #167	@ 0xa7
     a9c:	a804      	add	r0, sp, #16
     a9e:	f000 feaf 	bl	1800 <KeccakF1600_StateXORBytes>
    s_inc[25] = 0;
     aa2:	2200      	movs	r2, #0
     aa4:	2300      	movs	r3, #0
     aa6:	e9cd 2336 	strd	r2, r3, [sp, #216]	@ 0xd8
    KeccakF1600_StateExtractBytes(s_inc, h, r-s_inc[25], len);
     aaa:	4639      	mov	r1, r7
     aac:	2300      	movs	r3, #0
     aae:	22a8      	movs	r2, #168	@ 0xa8
     ab0:	a804      	add	r0, sp, #16
     ab2:	f001 f825 	bl	1b00 <KeccakF1600_StateExtractBytes>
    while (outlen > 0) {
     ab6:	b1a6      	cbz	r6, ae2 <cshake128_simple+0x11e>
        KeccakF1600_StateExtractBytes(s_inc, h, 0, len);
     ab8:	2500      	movs	r5, #0
        KeccakF1600_StatePermute(s_inc);
     aba:	a804      	add	r0, sp, #16
     abc:	f001 fa20 	bl	1f00 <KeccakF1600_StatePermute>
        if(outlen < r)
     ac0:	2ea8      	cmp	r6, #168	@ 0xa8
     ac2:	4634      	mov	r4, r6
     ac4:	bf28      	it	cs
     ac6:	24a8      	movcs	r4, #168	@ 0xa8
        KeccakF1600_StateExtractBytes(s_inc, h, 0, len);
     ac8:	4623      	mov	r3, r4
     aca:	4639      	mov	r1, r7
     acc:	2200      	movs	r2, #0
     ace:	a804      	add	r0, sp, #16
     ad0:	f001 f816 	bl	1b00 <KeccakF1600_StateExtractBytes>
        s_inc[25] = r - len;
     ad4:	f1c4 03a8 	rsb	r3, r4, #168	@ 0xa8
    while (outlen > 0) {
     ad8:	1b36      	subs	r6, r6, r4
        s_inc[25] = r - len;
     ada:	e9cd 3536 	strd	r3, r5, [sp, #216]	@ 0xd8
        h += len;
     ade:	4427      	add	r7, r4
    while (outlen > 0) {
     ae0:	d1eb      	bne.n	aba <cshake128_simple+0xf6>
  keccak_inc_squeeze(output, outlen, state.ctx, SHAKE128_RATE);
#ifdef PROFILE_HASHING
  uint64_t t1 = hal_get_time();
  hash_cycles += (t1-t0);
#endif
}
     ae2:	b038      	add	sp, #224	@ 0xe0
     ae4:	e8bd 8df0 	ldmia.w	sp!, {r4, r5, r6, r7, r8, sl, fp, pc}
      p |= 128;
     ae8:	2284      	movs	r2, #132	@ 0x84
     aea:	f88d 2007 	strb.w	r2, [sp, #7]
      KeccakF1600_StateXORBytes(s_inc, &p, s_inc[25], 1);
     aee:	2301      	movs	r3, #1
     af0:	22a7      	movs	r2, #167	@ 0xa7
     af2:	f10d 0107 	add.w	r1, sp, #7
     af6:	a804      	add	r0, sp, #16
     af8:	f000 fe82 	bl	1800 <KeccakF1600_StateXORBytes>
     afc:	e7d1      	b.n	aa2 <cshake128_simple+0xde>
     afe:	bf00      	nop
     b00:	0001a801 	.word	0x0001a801

00000b04 <shake128_absorb>:
#ifdef PROFILE_HASHING
  uint64_t t0 = hal_get_time();
#endif
  int i;
  for (i = 0; i < 25; i++)
    state->ctx[i] = 0;
     b04:	ed9f 7b06 	vldr	d7, [pc, #24]	@ b20 <shake128_absorb+0x1c>
     b08:	f1a0 0308 	sub.w	r3, r0, #8
     b0c:	f100 0cc0 	add.w	ip, r0, #192	@ 0xc0
     b10:	3308      	adds	r3, #8
  for (i = 0; i < 25; i++)
     b12:	4563      	cmp	r3, ip
    state->ctx[i] = 0;
     b14:	ed83 7b00 	vstr	d7, [r3]
  for (i = 0; i < 25; i++)
     b18:	d1fa      	bne.n	b10 <shake128_absorb+0xc>

  keccak_absorb(state->ctx, SHAKE128_RATE, input, inlen, 0x1F);
     b1a:	231f      	movs	r3, #31
     b1c:	e53a      	b.n	594 <keccak_absorb.constprop.1>
     b1e:	bf00      	nop
	...

00000b28 <shake128_squeezeblocks>:
  while(nblocks > 0)
     b28:	b189      	cbz	r1, b4e <shake128_squeezeblocks+0x26>
 * Arguments:   - uint8_t *output:     pointer to output blocks
 *              - size_t nblocks:      number of blocks to be squeezed (written to output)
 *              - shake128ctx *state:  pointer to in/output Keccak state
 **************************************************/
void shake128_squeezeblocks(uint8_t *output, size_t nblocks, shake128ctx *state)
{
     b2a:	b570      	push	{r4, r5, r6, lr}
     b2c:	4605      	mov	r5, r0
     b2e:	4616      	mov	r6, r2
     b30:	460c      	mov	r4, r1
    KeccakF1600_StatePermute(s);
     b32:	4630      	mov	r0, r6
     b34:	f001 f9e4 	bl	1f00 <KeccakF1600_StatePermute>
    KeccakF1600_StateExtractBytes(s, h, 0, r);
     b38:	4629      	mov	r1, r5
     b3a:	23a8      	movs	r3, #168	@ 0xa8
     b3c:	2200      	movs	r2, #0
     b3e:	4630      	mov	r0, r6
     b40:	f000 ffde 	bl	1b00 <KeccakF1600_StateExtractBytes>
  while(nblocks > 0)
     b44:	3c01      	subs	r4, #1
    h += r;
     b46:	f105 05a8 	add.w	r5, r5, #168	@ 0xa8
  while(nblocks > 0)
     b4a:	d1f2      	bne.n	b32 <shake128_squeezeblocks+0xa>
  keccak_squeezeblocks(output, nblocks, state->ctx, SHAKE128_RATE);
#ifdef PROFILE_HASHING
  uint64_t t1 = hal_get_time();
  hash_cycles += (t1-t0);
#endif
}
     b4c:	bd70      	pop	{r4, r5, r6, pc}
     b4e:	4770      	bx	lr

00000b50 <shake128>:

void shake128(uint8_t *output, size_t outlen, const uint8_t *input, size_t inlen)
{
     b50:	e92d 4df0 	stmdb	sp!, {r4, r5, r6, r7, r8, sl, fp, lr}
     b54:	b0b6      	sub	sp, #216	@ 0xd8
     b56:	460d      	mov	r5, r1
     b58:	4617      	mov	r7, r2
     b5a:	461c      	mov	r4, r3
     b5c:	4606      	mov	r6, r0
     b5e:	46ec      	mov	ip, sp
     b60:	a932      	add	r1, sp, #200	@ 0xc8
        s_inc[i] = 0;
     b62:	2200      	movs	r2, #0
     b64:	2300      	movs	r3, #0
     b66:	e9ec 2302 	strd	r2, r3, [ip, #8]!
    for (i = 0; i < 25; ++i) {
     b6a:	458c      	cmp	ip, r1
     b6c:	d1fb      	bne.n	b66 <shake128+0x16>
    while (mlen + s_inc[25] >= r) {
     b6e:	2ca7      	cmp	r4, #167	@ 0xa7
    s_inc[25] = 0;
     b70:	e9cd 2334 	strd	r2, r3, [sp, #208]	@ 0xd0
    while (mlen + s_inc[25] >= r) {
     b74:	f10d 0808 	add.w	r8, sp, #8
     b78:	f04f 0200 	mov.w	r2, #0
     b7c:	d91e      	bls.n	bbc <shake128+0x6c>
        s_inc[25] = 0;
     b7e:	f04f 0a00 	mov.w	sl, #0
     b82:	f04f 0b00 	mov.w	fp, #0
        KeccakF1600_StateXORBytes(s_inc, m, s_inc[25], r-s_inc[25]);
     b86:	4639      	mov	r1, r7
     b88:	f1c2 03a8 	rsb	r3, r2, #168	@ 0xa8
     b8c:	4640      	mov	r0, r8
     b8e:	f000 fe37 	bl	1800 <KeccakF1600_StateXORBytes>
        mlen -= (size_t)(r - s_inc[25]);
     b92:	9b34      	ldr	r3, [sp, #208]	@ 0xd0
        KeccakF1600_StatePermute(s_inc);
     b94:	4640      	mov	r0, r8
        mlen -= (size_t)(r - s_inc[25]);
     b96:	f1a3 02a8 	sub.w	r2, r3, #168	@ 0xa8
        m += r - s_inc[25];
     b9a:	f1c3 03a8 	rsb	r3, r3, #168	@ 0xa8
        mlen -= (size_t)(r - s_inc[25]);
     b9e:	4414      	add	r4, r2
        m += r - s_inc[25];
     ba0:	441f      	add	r7, r3
        s_inc[25] = 0;
     ba2:	e9cd ab34 	strd	sl, fp, [sp, #208]	@ 0xd0
        KeccakF1600_StatePermute(s_inc);
     ba6:	f001 f9ab 	bl	1f00 <KeccakF1600_StatePermute>
    while (mlen + s_inc[25] >= r) {
     baa:	e9dd 2334 	ldrd	r2, r3, [sp, #208]	@ 0xd0
     bae:	1911      	adds	r1, r2, r4
     bb0:	f143 0300 	adc.w	r3, r3, #0
     bb4:	29a8      	cmp	r1, #168	@ 0xa8
     bb6:	f173 0300 	sbcs.w	r3, r3, #0
     bba:	d2e4      	bcs.n	b86 <shake128+0x36>
    KeccakF1600_StateXORBytes(s_inc, m, s_inc[25], mlen);
     bbc:	4639      	mov	r1, r7
     bbe:	4623      	mov	r3, r4
     bc0:	4640      	mov	r0, r8
     bc2:	f000 fe1d 	bl	1800 <KeccakF1600_StateXORBytes>
    s_inc[25] += mlen;
     bc6:	9b34      	ldr	r3, [sp, #208]	@ 0xd0
     bc8:	18e2      	adds	r2, r4, r3
     bca:	9b35      	ldr	r3, [sp, #212]	@ 0xd4
     bcc:	9234      	str	r2, [sp, #208]	@ 0xd0
     bce:	f04f 011f 	mov.w	r1, #31
     bd2:	f143 0300 	adc.w	r3, r3, #0
     bd6:	f88d 1007 	strb.w	r1, [sp, #7]
    if(s_inc[25] == r-1){
     bda:	f1a2 01a7 	sub.w	r1, r2, #167	@ 0xa7
     bde:	4319      	orrs	r1, r3
    s_inc[25] += mlen;
     be0:	9335      	str	r3, [sp, #212]	@ 0xd4
    if(s_inc[25] == r-1){
     be2:	d032      	beq.n	c4a <shake128+0xfa>
      KeccakF1600_StateXORBytes(s_inc, &p, s_inc[25], 1);
     be4:	2301      	movs	r3, #1
     be6:	f10d 0107 	add.w	r1, sp, #7
     bea:	4640      	mov	r0, r8
     bec:	f000 fe08 	bl	1800 <KeccakF1600_StateXORBytes>
      p = 128;
     bf0:	2380      	movs	r3, #128	@ 0x80
     bf2:	f88d 3007 	strb.w	r3, [sp, #7]
      KeccakF1600_StateXORBytes(s_inc, &p, r-1, 1);
     bf6:	f10d 0107 	add.w	r1, sp, #7
     bfa:	2301      	movs	r3, #1
     bfc:	22a7      	movs	r2, #167	@ 0xa7
     bfe:	4640      	mov	r0, r8
     c00:	f000 fdfe 	bl	1800 <KeccakF1600_StateXORBytes>
    s_inc[25] = 0;
     c04:	2200      	movs	r2, #0
     c06:	2300      	movs	r3, #0
     c08:	e9cd 2334 	strd	r2, r3, [sp, #208]	@ 0xd0
    KeccakF1600_StateExtractBytes(s_inc, h, r-s_inc[25], len);
     c0c:	4631      	mov	r1, r6
     c0e:	2300      	movs	r3, #0
     c10:	22a8      	movs	r2, #168	@ 0xa8
     c12:	4640      	mov	r0, r8
     c14:	f000 ff74 	bl	1b00 <KeccakF1600_StateExtractBytes>
    while (outlen > 0) {
     c18:	b1a5      	cbz	r5, c44 <shake128+0xf4>
        KeccakF1600_StateExtractBytes(s_inc, h, 0, len);
     c1a:	2700      	movs	r7, #0
        KeccakF1600_StatePermute(s_inc);
     c1c:	4640      	mov	r0, r8
     c1e:	f001 f96f 	bl	1f00 <KeccakF1600_StatePermute>
        if(outlen < r)
     c22:	2da8      	cmp	r5, #168	@ 0xa8
     c24:	462c      	mov	r4, r5
     c26:	bf28      	it	cs
     c28:	24a8      	movcs	r4, #168	@ 0xa8
        KeccakF1600_StateExtractBytes(s_inc, h, 0, len);
     c2a:	4623      	mov	r3, r4
     c2c:	4631      	mov	r1, r6
     c2e:	2200      	movs	r2, #0
     c30:	4640      	mov	r0, r8
     c32:	f000 ff65 	bl	1b00 <KeccakF1600_StateExtractBytes>
        s_inc[25] = r - len;
     c36:	f1c4 03a8 	rsb	r3, r4, #168	@ 0xa8
    while (outlen > 0) {
     c3a:	1b2d      	subs	r5, r5, r4
        s_inc[25] = r - len;
     c3c:	e9cd 3734 	strd	r3, r7, [sp, #208]	@ 0xd0
        h += len;
     c40:	4426      	add	r6, r4
    while (outlen > 0) {
     c42:	d1eb      	bne.n	c1c <shake128+0xcc>
  keccak_inc_squeeze(output, outlen, state.ctx, SHAKE128_RATE);
#ifdef PROFILE_HASHING
  uint64_t t1 = hal_get_time();
  hash_cycles += (t1-t0);
#endif
}
     c44:	b036      	add	sp, #216	@ 0xd8
     c46:	e8bd 8df0 	ldmia.w	sp!, {r4, r5, r6, r7, r8, sl, fp, pc}
      p |= 128;
     c4a:	229f      	movs	r2, #159	@ 0x9f
     c4c:	f88d 2007 	strb.w	r2, [sp, #7]
      KeccakF1600_StateXORBytes(s_inc, &p, s_inc[25], 1);
     c50:	2301      	movs	r3, #1
     c52:	22a7      	movs	r2, #167	@ 0xa7
     c54:	f10d 0107 	add.w	r1, sp, #7
     c58:	4640      	mov	r0, r8
     c5a:	f000 fdd1 	bl	1800 <KeccakF1600_StateXORBytes>
     c5e:	e7d1      	b.n	c04 <shake128+0xb4>

00000c60 <shake128_ctx_release>:

void shake128_ctx_release(shake128ctx *state) {
    (void) state;
}
     c60:	4770      	bx	lr
     c62:	bf00      	nop

00000c64 <shake128_ctx_clone>:
void shake128_ctx_clone(shake128ctx *dest, const shake128ctx *src) {
    memcpy(dest, src, sizeof(shake128ctx));
     c64:	22c8      	movs	r2, #200	@ 0xc8
     c66:	f013 baa9 	b.w	141bc <memcpy>
     c6a:	bf00      	nop

00000c6c <shake256_absorb>:
#ifdef PROFILE_HASHING
  uint64_t t0 = hal_get_time();
#endif
  int i;
  for (i = 0; i < 25; i++)
    state->ctx[i] = 0;
     c6c:	ed9f 7b06 	vldr	d7, [pc, #24]	@ c88 <shake256_absorb+0x1c>
     c70:	f1a0 0308 	sub.w	r3, r0, #8
     c74:	f100 0cc0 	add.w	ip, r0, #192	@ 0xc0
     c78:	3308      	adds	r3, #8
  for (i = 0; i < 25; i++)
     c7a:	4563      	cmp	r3, ip
    state->ctx[i] = 0;
     c7c:	ed83 7b00 	vstr	d7, [r3]
  for (i = 0; i < 25; i++)
     c80:	d1fa      	bne.n	c78 <shake256_absorb+0xc>

  keccak_absorb(state->ctx, SHAKE256_RATE, input, inlen, 0x1F);
     c82:	231f      	movs	r3, #31
     c84:	e444      	b.n	510 <keccak_absorb.constprop.0>
     c86:	bf00      	nop
	...

00000c90 <shake256_squeezeblocks>:
  while(nblocks > 0)
     c90:	b189      	cbz	r1, cb6 <shake256_squeezeblocks+0x26>
#endif
}


void shake256_squeezeblocks(uint8_t *output, size_t nblocks, shake256ctx *state)
{
     c92:	b570      	push	{r4, r5, r6, lr}
     c94:	4605      	mov	r5, r0
     c96:	4616      	mov	r6, r2
     c98:	460c      	mov	r4, r1
    KeccakF1600_StatePermute(s);
     c9a:	4630      	mov	r0, r6
     c9c:	f001 f930 	bl	1f00 <KeccakF1600_StatePermute>
    KeccakF1600_StateExtractBytes(s, h, 0, r);
     ca0:	4629      	mov	r1, r5
     ca2:	2388      	movs	r3, #136	@ 0x88
     ca4:	2200      	movs	r2, #0
     ca6:	4630      	mov	r0, r6
     ca8:	f000 ff2a 	bl	1b00 <KeccakF1600_StateExtractBytes>
  while(nblocks > 0)
     cac:	3c01      	subs	r4, #1
    h += r;
     cae:	f105 0588 	add.w	r5, r5, #136	@ 0x88
  while(nblocks > 0)
     cb2:	d1f2      	bne.n	c9a <shake256_squeezeblocks+0xa>
  keccak_squeezeblocks(output, nblocks, state->ctx, SHAKE256_RATE);
#ifdef PROFILE_HASHING
  uint64_t t1 = hal_get_time();
  hash_cycles += (t1-t0);
#endif
}
     cb4:	bd70      	pop	{r4, r5, r6, pc}
     cb6:	4770      	bx	lr

00000cb8 <shake256>:
 *              - const uint8_t *input: pointer to input
 *              - size_t inlen:         length of input in bytes
 **************************************************/
void shake256(uint8_t *output, size_t outlen,
    const uint8_t *input, size_t inlen)
{
     cb8:	e92d 4df0 	stmdb	sp!, {r4, r5, r6, r7, r8, sl, fp, lr}
     cbc:	b0b6      	sub	sp, #216	@ 0xd8
     cbe:	460d      	mov	r5, r1
     cc0:	4617      	mov	r7, r2
     cc2:	461c      	mov	r4, r3
     cc4:	4606      	mov	r6, r0
     cc6:	46ec      	mov	ip, sp
     cc8:	a932      	add	r1, sp, #200	@ 0xc8
        s_inc[i] = 0;
     cca:	2200      	movs	r2, #0
     ccc:	2300      	movs	r3, #0
     cce:	e9ec 2302 	strd	r2, r3, [ip, #8]!
    for (i = 0; i < 25; ++i) {
     cd2:	458c      	cmp	ip, r1
     cd4:	d1fb      	bne.n	cce <shake256+0x16>
    while (mlen + s_inc[25] >= r) {
     cd6:	2c87      	cmp	r4, #135	@ 0x87
    s_inc[25] = 0;
     cd8:	e9cd 2334 	strd	r2, r3, [sp, #208]	@ 0xd0
    while (mlen + s_inc[25] >= r) {
     cdc:	f10d 0808 	add.w	r8, sp, #8
     ce0:	f04f 0200 	mov.w	r2, #0
     ce4:	d91e      	bls.n	d24 <shake256+0x6c>
        s_inc[25] = 0;
     ce6:	f04f 0a00 	mov.w	sl, #0
     cea:	f04f 0b00 	mov.w	fp, #0
        KeccakF1600_StateXORBytes(s_inc, m, s_inc[25], r-s_inc[25]);
     cee:	4639      	mov	r1, r7
     cf0:	f1c2 0388 	rsb	r3, r2, #136	@ 0x88
     cf4:	4640      	mov	r0, r8
     cf6:	f000 fd83 	bl	1800 <KeccakF1600_StateXORBytes>
        mlen -= (size_t)(r - s_inc[25]);
     cfa:	9b34      	ldr	r3, [sp, #208]	@ 0xd0
        KeccakF1600_StatePermute(s_inc);
     cfc:	4640      	mov	r0, r8
        mlen -= (size_t)(r - s_inc[25]);
     cfe:	f1a3 0288 	sub.w	r2, r3, #136	@ 0x88
        m += r - s_inc[25];
     d02:	f1c3 0388 	rsb	r3, r3, #136	@ 0x88
        mlen -= (size_t)(r - s_inc[25]);
     d06:	4414      	add	r4, r2
        m += r - s_inc[25];
     d08:	441f      	add	r7, r3
        s_inc[25] = 0;
     d0a:	e9cd ab34 	strd	sl, fp, [sp, #208]	@ 0xd0
        KeccakF1600_StatePermute(s_inc);
     d0e:	f001 f8f7 	bl	1f00 <KeccakF1600_StatePermute>
    while (mlen + s_inc[25] >= r) {
     d12:	e9dd 2334 	ldrd	r2, r3, [sp, #208]	@ 0xd0
     d16:	1911      	adds	r1, r2, r4
     d18:	f143 0300 	adc.w	r3, r3, #0
     d1c:	2988      	cmp	r1, #136	@ 0x88
     d1e:	f173 0300 	sbcs.w	r3, r3, #0
     d22:	d2e4      	bcs.n	cee <shake256+0x36>
    KeccakF1600_StateXORBytes(s_inc, m, s_inc[25], mlen);
     d24:	4639      	mov	r1, r7
     d26:	4623      	mov	r3, r4
     d28:	4640      	mov	r0, r8
     d2a:	f000 fd69 	bl	1800 <KeccakF1600_StateXORBytes>
    s_inc[25] += mlen;
     d2e:	9b34      	ldr	r3, [sp, #208]	@ 0xd0
     d30:	18e2      	adds	r2, r4, r3
     d32:	9b35      	ldr	r3, [sp, #212]	@ 0xd4
     d34:	9234      	str	r2, [sp, #208]	@ 0xd0
     d36:	f04f 011f 	mov.w	r1, #31
     d3a:	f143 0300 	adc.w	r3, r3, #0
     d3e:	f88d 1007 	strb.w	r1, [sp, #7]
    if(s_inc[25] == r-1){
     d42:	f1a2 0187 	sub.w	r1, r2, #135	@ 0x87
     d46:	4319      	orrs	r1, r3
    s_inc[25] += mlen;
     d48:	9335      	str	r3, [sp, #212]	@ 0xd4
    if(s_inc[25] == r-1){
     d4a:	d032      	beq.n	db2 <shake256+0xfa>
      KeccakF1600_StateXORBytes(s_inc, &p, s_inc[25], 1);
     d4c:	2301      	movs	r3, #1
     d4e:	f10d 0107 	add.w	r1, sp, #7
     d52:	4640      	mov	r0, r8
     d54:	f000 fd54 	bl	1800 <KeccakF1600_StateXORBytes>
      p = 128;
     d58:	2380      	movs	r3, #128	@ 0x80
     d5a:	f88d 3007 	strb.w	r3, [sp, #7]
      KeccakF1600_StateXORBytes(s_inc, &p, r-1, 1);
     d5e:	f10d 0107 	add.w	r1, sp, #7
     d62:	2301      	movs	r3, #1
     d64:	2287      	movs	r2, #135	@ 0x87
     d66:	4640      	mov	r0, r8
     d68:	f000 fd4a 	bl	1800 <KeccakF1600_StateXORBytes>
    s_inc[25] = 0;
     d6c:	2200      	movs	r2, #0
     d6e:	2300      	movs	r3, #0
     d70:	e9cd 2334 	strd	r2, r3, [sp, #208]	@ 0xd0
    KeccakF1600_StateExtractBytes(s_inc, h, r-s_inc[25], len);
     d74:	4631      	mov	r1, r6
     d76:	2300      	movs	r3, #0
     d78:	2288      	movs	r2, #136	@ 0x88
     d7a:	4640      	mov	r0, r8
     d7c:	f000 fec0 	bl	1b00 <KeccakF1600_StateExtractBytes>
    while (outlen > 0) {
     d80:	b1a5      	cbz	r5, dac <shake256+0xf4>
        KeccakF1600_StateExtractBytes(s_inc, h, 0, len);
     d82:	2700      	movs	r7, #0
        KeccakF1600_StatePermute(s_inc);
     d84:	4640      	mov	r0, r8
     d86:	f001 f8bb 	bl	1f00 <KeccakF1600_StatePermute>
        if(outlen < r)
     d8a:	2d88      	cmp	r5, #136	@ 0x88
     d8c:	462c      	mov	r4, r5
     d8e:	bf28      	it	cs
     d90:	2488      	movcs	r4, #136	@ 0x88
        KeccakF1600_StateExtractBytes(s_inc, h, 0, len);
     d92:	4623      	mov	r3, r4
     d94:	4631      	mov	r1, r6
     d96:	2200      	movs	r2, #0
     d98:	4640      	mov	r0, r8
     d9a:	f000 feb1 	bl	1b00 <KeccakF1600_StateExtractBytes>
        s_inc[25] = r - len;
     d9e:	f1c4 0388 	rsb	r3, r4, #136	@ 0x88
    while (outlen > 0) {
     da2:	1b2d      	subs	r5, r5, r4
        s_inc[25] = r - len;
     da4:	e9cd 3734 	strd	r3, r7, [sp, #208]	@ 0xd0
        h += len;
     da8:	4426      	add	r6, r4
    while (outlen > 0) {
     daa:	d1eb      	bne.n	d84 <shake256+0xcc>
  keccak_inc_squeeze(output, outlen, state.ctx, SHAKE256_RATE);
#ifdef PROFILE_HASHING
  uint64_t t1 = hal_get_time();
  hash_cycles += (t1-t0);
#endif
}
     dac:	b036      	add	sp, #216	@ 0xd8
     dae:	e8bd 8df0 	ldmia.w	sp!, {r4, r5, r6, r7, r8, sl, fp, pc}
      p |= 128;
     db2:	229f      	movs	r2, #159	@ 0x9f
     db4:	f88d 2007 	strb.w	r2, [sp, #7]
      KeccakF1600_StateXORBytes(s_inc, &p, s_inc[25], 1);
     db8:	2301      	movs	r3, #1
     dba:	2287      	movs	r2, #135	@ 0x87
     dbc:	f10d 0107 	add.w	r1, sp, #7
     dc0:	4640      	mov	r0, r8
     dc2:	f000 fd1d 	bl	1800 <KeccakF1600_StateXORBytes>
     dc6:	e7d1      	b.n	d6c <shake256+0xb4>

00000dc8 <shake256_ctx_release>:

void shake256_ctx_release(shake256ctx *state) {
     dc8:	4770      	bx	lr
     dca:	bf00      	nop

00000dcc <shake256_ctx_clone>:
    (void) state;
}

void shake256_ctx_clone(shake256ctx *dest, const shake256ctx *src) {
     dcc:	22c8      	movs	r2, #200	@ 0xc8
     dce:	f013 b9f5 	b.w	141bc <memcpy>
     dd2:	bf00      	nop

00000dd4 <sha3_256>:
 * Arguments:   - uint8_t *output:      pointer to output
 *              - const uint8_t *input: pointer to input
 *              - size_t inlen:         length of input in bytes
 **************************************************/
void sha3_256(uint8_t *output, const uint8_t *input, size_t inlen)
{
     dd4:	e92d 43f0 	stmdb	sp!, {r4, r5, r6, r7, r8, r9, lr}
     dd8:	b0b7      	sub	sp, #220	@ 0xdc
     dda:	4605      	mov	r5, r0
     ddc:	460e      	mov	r6, r1
     dde:	4614      	mov	r4, r2
     de0:	466b      	mov	r3, sp
     de2:	aa32      	add	r2, sp, #200	@ 0xc8
        s_inc[i] = 0;
     de4:	2000      	movs	r0, #0
     de6:	2100      	movs	r1, #0
     de8:	e9e3 0102 	strd	r0, r1, [r3, #8]!
    for (i = 0; i < 25; ++i) {
     dec:	4293      	cmp	r3, r2
     dee:	d1fb      	bne.n	de8 <sha3_256+0x14>
    while (mlen + s_inc[25] >= r) {
     df0:	2c87      	cmp	r4, #135	@ 0x87
    s_inc[25] = 0;
     df2:	e9cd 0134 	strd	r0, r1, [sp, #208]	@ 0xd0
    while (mlen + s_inc[25] >= r) {
     df6:	f04f 0200 	mov.w	r2, #0
     dfa:	af02      	add	r7, sp, #8
     dfc:	d91e      	bls.n	e3c <sha3_256+0x68>
        s_inc[25] = 0;
     dfe:	f04f 0800 	mov.w	r8, #0
     e02:	f04f 0900 	mov.w	r9, #0
        KeccakF1600_StateXORBytes(s_inc, m, s_inc[25], r-s_inc[25]);
     e06:	4631      	mov	r1, r6
     e08:	f1c2 0388 	rsb	r3, r2, #136	@ 0x88
     e0c:	4638      	mov	r0, r7
     e0e:	f000 fcf7 	bl	1800 <KeccakF1600_StateXORBytes>
        mlen -= (size_t)(r - s_inc[25]);
     e12:	9b34      	ldr	r3, [sp, #208]	@ 0xd0
        KeccakF1600_StatePermute(s_inc);
     e14:	4638      	mov	r0, r7
        mlen -= (size_t)(r - s_inc[25]);
     e16:	f1a3 0288 	sub.w	r2, r3, #136	@ 0x88
        m += r - s_inc[25];
     e1a:	f1c3 0388 	rsb	r3, r3, #136	@ 0x88
        mlen -= (size_t)(r - s_inc[25]);
     e1e:	4414      	add	r4, r2
        m += r - s_inc[25];
     e20:	441e      	add	r6, r3
        s_inc[25] = 0;
     e22:	e9cd 8934 	strd	r8, r9, [sp, #208]	@ 0xd0
        KeccakF1600_StatePermute(s_inc);
     e26:	f001 f86b 	bl	1f00 <KeccakF1600_StatePermute>
    while (mlen + s_inc[25] >= r) {
     e2a:	e9dd 2334 	ldrd	r2, r3, [sp, #208]	@ 0xd0
     e2e:	1911      	adds	r1, r2, r4
     e30:	f143 0300 	adc.w	r3, r3, #0
     e34:	2988      	cmp	r1, #136	@ 0x88
     e36:	f173 0300 	sbcs.w	r3, r3, #0
     e3a:	d2e4      	bcs.n	e06 <sha3_256+0x32>
    KeccakF1600_StateXORBytes(s_inc, m, s_inc[25], mlen);
     e3c:	4631      	mov	r1, r6
     e3e:	4623      	mov	r3, r4
     e40:	4638      	mov	r0, r7
     e42:	f000 fcdd 	bl	1800 <KeccakF1600_StateXORBytes>
    s_inc[25] += mlen;
     e46:	e9dd 2334 	ldrd	r2, r3, [sp, #208]	@ 0xd0
     e4a:	2106      	movs	r1, #6
     e4c:	18a2      	adds	r2, r4, r2
     e4e:	f143 0300 	adc.w	r3, r3, #0
     e52:	f88d 1007 	strb.w	r1, [sp, #7]
    if(s_inc[25] == r-1){
     e56:	f1a2 0187 	sub.w	r1, r2, #135	@ 0x87
     e5a:	4319      	orrs	r1, r3
    s_inc[25] += mlen;
     e5c:	e9cd 2334 	strd	r2, r3, [sp, #208]	@ 0xd0
    if(s_inc[25] == r-1){
     e60:	d025      	beq.n	eae <sha3_256+0xda>
      KeccakF1600_StateXORBytes(s_inc, &p, s_inc[25], 1);
     e62:	2301      	movs	r3, #1
     e64:	f10d 0107 	add.w	r1, sp, #7
     e68:	4638      	mov	r0, r7
     e6a:	f000 fcc9 	bl	1800 <KeccakF1600_StateXORBytes>
      p = 128;
     e6e:	2280      	movs	r2, #128	@ 0x80
     e70:	f88d 2007 	strb.w	r2, [sp, #7]
      KeccakF1600_StateXORBytes(s_inc, &p, r-1, 1);
     e74:	2301      	movs	r3, #1
     e76:	f10d 0107 	add.w	r1, sp, #7
     e7a:	2287      	movs	r2, #135	@ 0x87
     e7c:	4638      	mov	r0, r7
     e7e:	f000 fcbf 	bl	1800 <KeccakF1600_StateXORBytes>
    s_inc[25] = 0;
     e82:	2000      	movs	r0, #0
     e84:	2100      	movs	r1, #0
     e86:	e9cd 0134 	strd	r0, r1, [sp, #208]	@ 0xd0
    KeccakF1600_StateExtractBytes(s_inc, h, r-s_inc[25], len);
     e8a:	2300      	movs	r3, #0
     e8c:	4629      	mov	r1, r5
     e8e:	2288      	movs	r2, #136	@ 0x88
     e90:	4638      	mov	r0, r7
     e92:	f000 fe35 	bl	1b00 <KeccakF1600_StateExtractBytes>
        KeccakF1600_StatePermute(s_inc);
     e96:	4638      	mov	r0, r7
     e98:	f001 f832 	bl	1f00 <KeccakF1600_StatePermute>
        KeccakF1600_StateExtractBytes(s_inc, h, 0, len);
     e9c:	2320      	movs	r3, #32
     e9e:	2200      	movs	r2, #0
     ea0:	4629      	mov	r1, r5
     ea2:	4638      	mov	r0, r7
     ea4:	f000 fe2c 	bl	1b00 <KeccakF1600_StateExtractBytes>
  keccak_inc_squeeze(output, 32, state.ctx, SHA3_256_RATE);
#ifdef PROFILE_HASHING
  uint64_t t1 = hal_get_time();
  hash_cycles += (t1-t0);
#endif
}
     ea8:	b037      	add	sp, #220	@ 0xdc
     eaa:	e8bd 83f0 	ldmia.w	sp!, {r4, r5, r6, r7, r8, r9, pc}
      p |= 128;
     eae:	2186      	movs	r1, #134	@ 0x86
     eb0:	f88d 1007 	strb.w	r1, [sp, #7]
      KeccakF1600_StateXORBytes(s_inc, &p, s_inc[25], 1);
     eb4:	2301      	movs	r3, #1
     eb6:	2287      	movs	r2, #135	@ 0x87
     eb8:	f10d 0107 	add.w	r1, sp, #7
     ebc:	4638      	mov	r0, r7
     ebe:	f000 fc9f 	bl	1800 <KeccakF1600_StateXORBytes>
     ec2:	e7de      	b.n	e82 <sha3_256+0xae>

00000ec4 <sha3_256_inc_init>:
void sha3_256_inc_init(sha3_256incctx *state) {
     ec4:	ed9f 7b06 	vldr	d7, [pc, #24]	@ ee0 <sha3_256_inc_init+0x1c>
     ec8:	f1a0 0308 	sub.w	r3, r0, #8
     ecc:	f100 02c0 	add.w	r2, r0, #192	@ 0xc0
     ed0:	3308      	adds	r3, #8
     ed2:	4293      	cmp	r3, r2
     ed4:	ed83 7b00 	vstr	d7, [r3]
     ed8:	d1fa      	bne.n	ed0 <sha3_256_inc_init+0xc>
     eda:	ed80 7b32 	vstr	d7, [r0, #200]	@ 0xc8
     ede:	4770      	bx	lr
	...

00000ee8 <sha3_256_inc_absorb>:
  uint64_t t1 = hal_get_time();
  hash_cycles += (t1-t0);
#endif
}

void sha3_256_inc_absorb(sha3_256incctx *state, const uint8_t *input, size_t inlen) {
     ee8:	e92d 4370 	stmdb	sp!, {r4, r5, r6, r8, r9, lr}
     eec:	4615      	mov	r5, r2
     eee:	4604      	mov	r4, r0
     ef0:	e9d0 2032 	ldrd	r2, r0, [r0, #200]	@ 0xc8
     ef4:	18ab      	adds	r3, r5, r2
     ef6:	f140 0000 	adc.w	r0, r0, #0
     efa:	2b88      	cmp	r3, #136	@ 0x88
     efc:	f170 0000 	sbcs.w	r0, r0, #0
     f00:	460e      	mov	r6, r1
     f02:	d31f      	bcc.n	f44 <sha3_256_inc_absorb+0x5c>
     f04:	f04f 0800 	mov.w	r8, #0
     f08:	f04f 0900 	mov.w	r9, #0
     f0c:	f1c2 0388 	rsb	r3, r2, #136	@ 0x88
     f10:	4631      	mov	r1, r6
     f12:	4620      	mov	r0, r4
     f14:	f000 fc74 	bl	1800 <KeccakF1600_StateXORBytes>
     f18:	f8d4 30c8 	ldr.w	r3, [r4, #200]	@ 0xc8
     f1c:	4620      	mov	r0, r4
     f1e:	f1a3 0288 	sub.w	r2, r3, #136	@ 0x88
     f22:	e9c4 8932 	strd	r8, r9, [r4, #200]	@ 0xc8
     f26:	f1c3 0388 	rsb	r3, r3, #136	@ 0x88
     f2a:	4415      	add	r5, r2
     f2c:	441e      	add	r6, r3
     f2e:	f000 ffe7 	bl	1f00 <KeccakF1600_StatePermute>
     f32:	e9d4 2032 	ldrd	r2, r0, [r4, #200]	@ 0xc8
     f36:	1953      	adds	r3, r2, r5
     f38:	f140 0000 	adc.w	r0, r0, #0
     f3c:	2b88      	cmp	r3, #136	@ 0x88
     f3e:	f170 0000 	sbcs.w	r0, r0, #0
     f42:	d2e3      	bcs.n	f0c <sha3_256_inc_absorb+0x24>
     f44:	462b      	mov	r3, r5
     f46:	4631      	mov	r1, r6
     f48:	4620      	mov	r0, r4
     f4a:	f000 fc59 	bl	1800 <KeccakF1600_StateXORBytes>
     f4e:	e9d4 3232 	ldrd	r3, r2, [r4, #200]	@ 0xc8
     f52:	195b      	adds	r3, r3, r5
     f54:	f142 0200 	adc.w	r2, r2, #0
     f58:	e9c4 3232 	strd	r3, r2, [r4, #200]	@ 0xc8
     f5c:	e8bd 8370 	ldmia.w	sp!, {r4, r5, r6, r8, r9, pc}

00000f60 <sha3_256_inc_finalize>:
  uint64_t t1 = hal_get_time();
  hash_cycles += (t1-t0);
#endif
}

void sha3_256_inc_finalize(uint8_t *output, sha3_256incctx *state) {
     f60:	b570      	push	{r4, r5, r6, lr}
     f62:	460d      	mov	r5, r1
    if(s_inc[25] == r-1){
     f64:	e9d1 2132 	ldrd	r2, r1, [r1, #200]	@ 0xc8
void sha3_256_inc_finalize(uint8_t *output, sha3_256incctx *state) {
     f68:	b0a2      	sub	sp, #136	@ 0x88
     f6a:	2306      	movs	r3, #6
     f6c:	f88d 3000 	strb.w	r3, [sp]
    if(s_inc[25] == r-1){
     f70:	f1a2 0387 	sub.w	r3, r2, #135	@ 0x87
     f74:	430b      	orrs	r3, r1
void sha3_256_inc_finalize(uint8_t *output, sha3_256incctx *state) {
     f76:	4604      	mov	r4, r0
      KeccakF1600_StateXORBytes(s_inc, &p, s_inc[25], 1);
     f78:	466e      	mov	r6, sp
    if(s_inc[25] == r-1){
     f7a:	d02c      	beq.n	fd6 <sha3_256_inc_finalize+0x76>
      KeccakF1600_StateXORBytes(s_inc, &p, s_inc[25], 1);
     f7c:	2301      	movs	r3, #1
     f7e:	4631      	mov	r1, r6
     f80:	4628      	mov	r0, r5
     f82:	f000 fc3d 	bl	1800 <KeccakF1600_StateXORBytes>
      p = 128;
     f86:	2280      	movs	r2, #128	@ 0x80
      KeccakF1600_StateXORBytes(s_inc, &p, r-1, 1);
     f88:	4631      	mov	r1, r6
      p = 128;
     f8a:	f88d 2000 	strb.w	r2, [sp]
      KeccakF1600_StateXORBytes(s_inc, &p, r-1, 1);
     f8e:	4628      	mov	r0, r5
     f90:	2301      	movs	r3, #1
     f92:	2287      	movs	r2, #135	@ 0x87
     f94:	f000 fc34 	bl	1800 <KeccakF1600_StateXORBytes>
    s_inc[25] = 0;
     f98:	2200      	movs	r2, #0
     f9a:	2300      	movs	r3, #0
     f9c:	e9c5 2332 	strd	r2, r3, [r5, #200]	@ 0xc8
    KeccakF1600_StatePermute(s);
     fa0:	4628      	mov	r0, r5
     fa2:	f000 ffad 	bl	1f00 <KeccakF1600_StatePermute>
    KeccakF1600_StateExtractBytes(s, h, 0, r);
     fa6:	4631      	mov	r1, r6
     fa8:	4628      	mov	r0, r5
     faa:	2388      	movs	r3, #136	@ 0x88
     fac:	2200      	movs	r2, #0
     fae:	f000 fda7 	bl	1b00 <KeccakF1600_StateExtractBytes>
    keccak_inc_finalize(state->ctx, SHA3_256_RATE, 0x06);

    keccak_squeezeblocks(t, 1, state->ctx, SHA3_256_RATE);

    for (size_t i = 0; i < 32; i++) {
        output[i] = t[i];
     fb2:	9b01      	ldr	r3, [sp, #4]
     fb4:	6063      	str	r3, [r4, #4]
     fb6:	9b02      	ldr	r3, [sp, #8]
     fb8:	60a3      	str	r3, [r4, #8]
     fba:	9b03      	ldr	r3, [sp, #12]
     fbc:	60e3      	str	r3, [r4, #12]
     fbe:	e9dd 1205 	ldrd	r1, r2, [sp, #20]
     fc2:	9b04      	ldr	r3, [sp, #16]
     fc4:	9800      	ldr	r0, [sp, #0]
     fc6:	6123      	str	r3, [r4, #16]
     fc8:	9b07      	ldr	r3, [sp, #28]
     fca:	6020      	str	r0, [r4, #0]
     fcc:	6161      	str	r1, [r4, #20]
     fce:	61a2      	str	r2, [r4, #24]
     fd0:	61e3      	str	r3, [r4, #28]
    }
#ifdef PROFILE_HASHING
  uint64_t t1 = hal_get_time();
  hash_cycles += (t1-t0);
#endif
}
     fd2:	b022      	add	sp, #136	@ 0x88
     fd4:	bd70      	pop	{r4, r5, r6, pc}
      p |= 128;
     fd6:	2286      	movs	r2, #134	@ 0x86
     fd8:	e7d6      	b.n	f88 <sha3_256_inc_finalize+0x28>
     fda:	bf00      	nop

00000fdc <sha3_256_inc_ctx_clone>:

void sha3_256_inc_ctx_clone(sha3_256incctx *dest, const sha3_256incctx *src) {
     fdc:	22d0      	movs	r2, #208	@ 0xd0
     fde:	f013 b8ed 	b.w	141bc <memcpy>
     fe2:	bf00      	nop

00000fe4 <sha3_256_inc_ctx_release>:
    memcpy(dest, src, sizeof(sha3_256incctx));
}

void sha3_256_inc_ctx_release(sha3_256incctx *state) {
     fe4:	4770      	bx	lr
     fe6:	bf00      	nop

00000fe8 <sha3_384_inc_init>:
    (void) state;
}

void sha3_384_inc_init(sha3_384incctx *state) {
     fe8:	ed9f 7b07 	vldr	d7, [pc, #28]	@ 1008 <sha3_384_inc_init+0x20>
     fec:	f1a0 0308 	sub.w	r3, r0, #8
     ff0:	f100 02c0 	add.w	r2, r0, #192	@ 0xc0
     ff4:	3308      	adds	r3, #8
     ff6:	4293      	cmp	r3, r2
     ff8:	ed83 7b00 	vstr	d7, [r3]
     ffc:	d1fa      	bne.n	ff4 <sha3_384_inc_init+0xc>
     ffe:	ed80 7b32 	vstr	d7, [r0, #200]	@ 0xc8
    1002:	4770      	bx	lr
    1004:	f3af 8000 	nop.w
	...

00001010 <sha3_384_inc_absorb>:
  uint64_t t1 = hal_get_time();
  hash_cycles += (t1-t0);
#endif
}

void sha3_384_inc_absorb(sha3_384incctx *state, const uint8_t *input, size_t inlen) {
    1010:	e92d 4370 	stmdb	sp!, {r4, r5, r6, r8, r9, lr}
    1014:	4615      	mov	r5, r2
    1016:	4604      	mov	r4, r0
    while (mlen + s_inc[25] >= r) {
    1018:	e9d0 2032 	ldrd	r2, r0, [r0, #200]	@ 0xc8
    101c:	18ab      	adds	r3, r5, r2
    101e:	f140 0000 	adc.w	r0, r0, #0
    1022:	2b68      	cmp	r3, #104	@ 0x68
    1024:	f170 0000 	sbcs.w	r0, r0, #0
void sha3_384_inc_absorb(sha3_384incctx *state, const uint8_t *input, size_t inlen) {
    1028:	460e      	mov	r6, r1
    while (mlen + s_inc[25] >= r) {
    102a:	d31f      	bcc.n	106c <sha3_384_inc_absorb+0x5c>
        s_inc[25] = 0;
    102c:	f04f 0800 	mov.w	r8, #0
    1030:	f04f 0900 	mov.w	r9, #0
        KeccakF1600_StateXORBytes(s_inc, m, s_inc[25], r-s_inc[25]);
    1034:	f1c2 0368 	rsb	r3, r2, #104	@ 0x68
    1038:	4631      	mov	r1, r6
    103a:	4620      	mov	r0, r4
    103c:	f000 fbe0 	bl	1800 <KeccakF1600_StateXORBytes>
        mlen -= (size_t)(r - s_inc[25]);
    1040:	f8d4 30c8 	ldr.w	r3, [r4, #200]	@ 0xc8
        KeccakF1600_StatePermute(s_inc);
    1044:	4620      	mov	r0, r4
        mlen -= (size_t)(r - s_inc[25]);
    1046:	f1a3 0268 	sub.w	r2, r3, #104	@ 0x68
        s_inc[25] = 0;
    104a:	e9c4 8932 	strd	r8, r9, [r4, #200]	@ 0xc8
        m += r - s_inc[25];
    104e:	f1c3 0368 	rsb	r3, r3, #104	@ 0x68
        mlen -= (size_t)(r - s_inc[25]);
    1052:	4415      	add	r5, r2
        m += r - s_inc[25];
    1054:	441e      	add	r6, r3
        KeccakF1600_StatePermute(s_inc);
    1056:	f000 ff53 	bl	1f00 <KeccakF1600_StatePermute>
    while (mlen + s_inc[25] >= r) {
    105a:	e9d4 2032 	ldrd	r2, r0, [r4, #200]	@ 0xc8
    105e:	1953      	adds	r3, r2, r5
    1060:	f140 0000 	adc.w	r0, r0, #0
    1064:	2b68      	cmp	r3, #104	@ 0x68
    1066:	f170 0000 	sbcs.w	r0, r0, #0
    106a:	d2e3      	bcs.n	1034 <sha3_384_inc_absorb+0x24>
    KeccakF1600_StateXORBytes(s_inc, m, s_inc[25], mlen);
    106c:	462b      	mov	r3, r5
    106e:	4631      	mov	r1, r6
    1070:	4620      	mov	r0, r4
    1072:	f000 fbc5 	bl	1800 <KeccakF1600_StateXORBytes>
    s_inc[25] += mlen;
    1076:	e9d4 3232 	ldrd	r3, r2, [r4, #200]	@ 0xc8
    107a:	195b      	adds	r3, r3, r5
    107c:	f142 0200 	adc.w	r2, r2, #0
    1080:	e9c4 3232 	strd	r3, r2, [r4, #200]	@ 0xc8
    keccak_inc_absorb(state->ctx, SHA3_384_RATE, input, inlen);
#ifdef PROFILE_HASHING
  uint64_t t1 = hal_get_time();
  hash_cycles += (t1-t0);
#endif
}
    1084:	e8bd 8370 	ldmia.w	sp!, {r4, r5, r6, r8, r9, pc}

00001088 <sha3_384_inc_finalize>:

void sha3_384_inc_finalize(uint8_t *output, sha3_384incctx *state) {
    1088:	b570      	push	{r4, r5, r6, lr}
    108a:	460d      	mov	r5, r1
    if(s_inc[25] == r-1){
    108c:	e9d1 2132 	ldrd	r2, r1, [r1, #200]	@ 0xc8
void sha3_384_inc_finalize(uint8_t *output, sha3_384incctx *state) {
    1090:	b09a      	sub	sp, #104	@ 0x68
    1092:	2306      	movs	r3, #6
    1094:	f88d 3000 	strb.w	r3, [sp]
    if(s_inc[25] == r-1){
    1098:	f1a2 0367 	sub.w	r3, r2, #103	@ 0x67
    109c:	430b      	orrs	r3, r1
void sha3_384_inc_finalize(uint8_t *output, sha3_384incctx *state) {
    109e:	4604      	mov	r4, r0
      KeccakF1600_StateXORBytes(s_inc, &p, s_inc[25], 1);
    10a0:	466e      	mov	r6, sp
    if(s_inc[25] == r-1){
    10a2:	d034      	beq.n	110e <sha3_384_inc_finalize+0x86>
      KeccakF1600_StateXORBytes(s_inc, &p, s_inc[25], 1);
    10a4:	2301      	movs	r3, #1
    10a6:	4631      	mov	r1, r6
    10a8:	4628      	mov	r0, r5
    10aa:	f000 fba9 	bl	1800 <KeccakF1600_StateXORBytes>
      p = 128;
    10ae:	2280      	movs	r2, #128	@ 0x80
      KeccakF1600_StateXORBytes(s_inc, &p, r-1, 1);
    10b0:	4631      	mov	r1, r6
      p = 128;
    10b2:	f88d 2000 	strb.w	r2, [sp]
      KeccakF1600_StateXORBytes(s_inc, &p, r-1, 1);
    10b6:	4628      	mov	r0, r5
    10b8:	2301      	movs	r3, #1
    10ba:	2267      	movs	r2, #103	@ 0x67
    10bc:	f000 fba0 	bl	1800 <KeccakF1600_StateXORBytes>
    s_inc[25] = 0;
    10c0:	2200      	movs	r2, #0
    10c2:	2300      	movs	r3, #0
    10c4:	e9c5 2332 	strd	r2, r3, [r5, #200]	@ 0xc8
    KeccakF1600_StatePermute(s);
    10c8:	4628      	mov	r0, r5
    10ca:	f000 ff19 	bl	1f00 <KeccakF1600_StatePermute>
    KeccakF1600_StateExtractBytes(s, h, 0, r);
    10ce:	4631      	mov	r1, r6
    10d0:	4628      	mov	r0, r5
    10d2:	2368      	movs	r3, #104	@ 0x68
    10d4:	2200      	movs	r2, #0
    10d6:	f000 fd13 	bl	1b00 <KeccakF1600_StateExtractBytes>
    keccak_inc_finalize(state->ctx, SHA3_384_RATE, 0x06);

    keccak_squeezeblocks(t, 1, state->ctx, SHA3_384_RATE);

    for (size_t i = 0; i < 48; i++) {
        output[i] = t[i];
    10da:	9b01      	ldr	r3, [sp, #4]
    10dc:	6063      	str	r3, [r4, #4]
    10de:	9b02      	ldr	r3, [sp, #8]
    10e0:	60a3      	str	r3, [r4, #8]
    10e2:	9b03      	ldr	r3, [sp, #12]
    10e4:	60e3      	str	r3, [r4, #12]
    10e6:	9b04      	ldr	r3, [sp, #16]
    10e8:	6123      	str	r3, [r4, #16]
    10ea:	9b05      	ldr	r3, [sp, #20]
    10ec:	6163      	str	r3, [r4, #20]
    10ee:	9b06      	ldr	r3, [sp, #24]
    10f0:	61a3      	str	r3, [r4, #24]
    10f2:	9b07      	ldr	r3, [sp, #28]
    10f4:	61e3      	str	r3, [r4, #28]
    10f6:	e9dd 1209 	ldrd	r1, r2, [sp, #36]	@ 0x24
    10fa:	9b08      	ldr	r3, [sp, #32]
    10fc:	9800      	ldr	r0, [sp, #0]
    10fe:	6223      	str	r3, [r4, #32]
    1100:	9b0b      	ldr	r3, [sp, #44]	@ 0x2c
    1102:	6020      	str	r0, [r4, #0]
    1104:	6261      	str	r1, [r4, #36]	@ 0x24
    1106:	62a2      	str	r2, [r4, #40]	@ 0x28
    1108:	62e3      	str	r3, [r4, #44]	@ 0x2c
    }
#ifdef PROFILE_HASHING
  uint64_t t1 = hal_get_time();
  hash_cycles += (t1-t0);
#endif
}
    110a:	b01a      	add	sp, #104	@ 0x68
    110c:	bd70      	pop	{r4, r5, r6, pc}
      p |= 128;
    110e:	2286      	movs	r2, #134	@ 0x86
    1110:	e7ce      	b.n	10b0 <sha3_384_inc_finalize+0x28>
    1112:	bf00      	nop

00001114 <sha3_384_inc_ctx_clone>:

void sha3_384_inc_ctx_clone(sha3_384incctx *dest, const sha3_384incctx *src) {
    1114:	22d0      	movs	r2, #208	@ 0xd0
    1116:	f013 b851 	b.w	141bc <memcpy>
    111a:	bf00      	nop

0000111c <sha3_384_inc_ctx_release>:
    memcpy(dest, src, sizeof(sha3_384incctx));
}

void sha3_384_inc_ctx_release(sha3_384incctx *state) {
    111c:	4770      	bx	lr
    111e:	bf00      	nop

00001120 <sha3_384>:
 *
 * Arguments:   - uint8_t *output:      pointer to output
 *              - const uint8_t *input: pointer to input
 *              - size_t inlen:   length of input in bytes
 **************************************************/
void sha3_384(uint8_t *output, const uint8_t *input, size_t inlen) {
    1120:	e92d 43f0 	stmdb	sp!, {r4, r5, r6, r7, r8, r9, lr}
    1124:	b0b7      	sub	sp, #220	@ 0xdc
    1126:	4605      	mov	r5, r0
    1128:	460e      	mov	r6, r1
    112a:	4614      	mov	r4, r2
    112c:	466b      	mov	r3, sp
    112e:	aa32      	add	r2, sp, #200	@ 0xc8
        s_inc[i] = 0;
    1130:	2000      	movs	r0, #0
    1132:	2100      	movs	r1, #0
    1134:	e9e3 0102 	strd	r0, r1, [r3, #8]!
    for (i = 0; i < 25; ++i) {
    1138:	4293      	cmp	r3, r2
    113a:	d1fb      	bne.n	1134 <sha3_384+0x14>
    while (mlen + s_inc[25] >= r) {
    113c:	2c67      	cmp	r4, #103	@ 0x67
    s_inc[25] = 0;
    113e:	e9cd 0134 	strd	r0, r1, [sp, #208]	@ 0xd0
    while (mlen + s_inc[25] >= r) {
    1142:	f04f 0200 	mov.w	r2, #0
    1146:	af02      	add	r7, sp, #8
    1148:	d91e      	bls.n	1188 <sha3_384+0x68>
        s_inc[25] = 0;
    114a:	f04f 0800 	mov.w	r8, #0
    114e:	f04f 0900 	mov.w	r9, #0
        KeccakF1600_StateXORBytes(s_inc, m, s_inc[25], r-s_inc[25]);
    1152:	4631      	mov	r1, r6
    1154:	f1c2 0368 	rsb	r3, r2, #104	@ 0x68
    1158:	4638      	mov	r0, r7
    115a:	f000 fb51 	bl	1800 <KeccakF1600_StateXORBytes>
        mlen -= (size_t)(r - s_inc[25]);
    115e:	9b34      	ldr	r3, [sp, #208]	@ 0xd0
        KeccakF1600_StatePermute(s_inc);
    1160:	4638      	mov	r0, r7
        mlen -= (size_t)(r - s_inc[25]);
    1162:	f1a3 0268 	sub.w	r2, r3, #104	@ 0x68
        m += r - s_inc[25];
    1166:	f1c3 0368 	rsb	r3, r3, #104	@ 0x68
        mlen -= (size_t)(r - s_inc[25]);
    116a:	4414      	add	r4, r2
        m += r - s_inc[25];
    116c:	441e      	add	r6, r3
        s_inc[25] = 0;
    116e:	e9cd 8934 	strd	r8, r9, [sp, #208]	@ 0xd0
        KeccakF1600_StatePermute(s_inc);
    1172:	f000 fec5 	bl	1f00 <KeccakF1600_StatePermute>
    while (mlen + s_inc[25] >= r) {
    1176:	e9dd 2334 	ldrd	r2, r3, [sp, #208]	@ 0xd0
    117a:	1911      	adds	r1, r2, r4
    117c:	f143 0300 	adc.w	r3, r3, #0
    1180:	2968      	cmp	r1, #104	@ 0x68
    1182:	f173 0300 	sbcs.w	r3, r3, #0
    1186:	d2e4      	bcs.n	1152 <sha3_384+0x32>
    KeccakF1600_StateXORBytes(s_inc, m, s_inc[25], mlen);
    1188:	4631      	mov	r1, r6
    118a:	4623      	mov	r3, r4
    118c:	4638      	mov	r0, r7
    118e:	f000 fb37 	bl	1800 <KeccakF1600_StateXORBytes>
    s_inc[25] += mlen;
    1192:	e9dd 2334 	ldrd	r2, r3, [sp, #208]	@ 0xd0
    1196:	2106      	movs	r1, #6
    1198:	18a2      	adds	r2, r4, r2
    119a:	f143 0300 	adc.w	r3, r3, #0
    119e:	f88d 1007 	strb.w	r1, [sp, #7]
    if(s_inc[25] == r-1){
    11a2:	f1a2 0167 	sub.w	r1, r2, #103	@ 0x67
    11a6:	4319      	orrs	r1, r3
    s_inc[25] += mlen;
    11a8:	e9cd 2334 	strd	r2, r3, [sp, #208]	@ 0xd0
    if(s_inc[25] == r-1){
    11ac:	d025      	beq.n	11fa <sha3_384+0xda>
      KeccakF1600_StateXORBytes(s_inc, &p, s_inc[25], 1);
    11ae:	2301      	movs	r3, #1
    11b0:	f10d 0107 	add.w	r1, sp, #7
    11b4:	4638      	mov	r0, r7
    11b6:	f000 fb23 	bl	1800 <KeccakF1600_StateXORBytes>
      p = 128;
    11ba:	2280      	movs	r2, #128	@ 0x80
    11bc:	f88d 2007 	strb.w	r2, [sp, #7]
      KeccakF1600_StateXORBytes(s_inc, &p, r-1, 1);
    11c0:	2301      	movs	r3, #1
    11c2:	f10d 0107 	add.w	r1, sp, #7
    11c6:	2267      	movs	r2, #103	@ 0x67
    11c8:	4638      	mov	r0, r7
    11ca:	f000 fb19 	bl	1800 <KeccakF1600_StateXORBytes>
    s_inc[25] = 0;
    11ce:	2000      	movs	r0, #0
    11d0:	2100      	movs	r1, #0
    11d2:	e9cd 0134 	strd	r0, r1, [sp, #208]	@ 0xd0
    KeccakF1600_StateExtractBytes(s_inc, h, r-s_inc[25], len);
    11d6:	2300      	movs	r3, #0
    11d8:	4629      	mov	r1, r5
    11da:	2268      	movs	r2, #104	@ 0x68
    11dc:	4638      	mov	r0, r7
    11de:	f000 fc8f 	bl	1b00 <KeccakF1600_StateExtractBytes>
        KeccakF1600_StatePermute(s_inc);
    11e2:	4638      	mov	r0, r7
    11e4:	f000 fe8c 	bl	1f00 <KeccakF1600_StatePermute>
        KeccakF1600_StateExtractBytes(s_inc, h, 0, len);
    11e8:	2330      	movs	r3, #48	@ 0x30
    11ea:	2200      	movs	r2, #0
    11ec:	4629      	mov	r1, r5
    11ee:	4638      	mov	r0, r7
    11f0:	f000 fc86 	bl	1b00 <KeccakF1600_StateExtractBytes>
  keccak_inc_squeeze(output, 48, state.ctx, SHA3_384_RATE);
#ifdef PROFILE_HASHING
  uint64_t t1 = hal_get_time();
  hash_cycles += (t1-t0);
#endif
}
    11f4:	b037      	add	sp, #220	@ 0xdc
    11f6:	e8bd 83f0 	ldmia.w	sp!, {r4, r5, r6, r7, r8, r9, pc}
      p |= 128;
    11fa:	2186      	movs	r1, #134	@ 0x86
    11fc:	f88d 1007 	strb.w	r1, [sp, #7]
      KeccakF1600_StateXORBytes(s_inc, &p, s_inc[25], 1);
    1200:	2301      	movs	r3, #1
    1202:	2267      	movs	r2, #103	@ 0x67
    1204:	f10d 0107 	add.w	r1, sp, #7
    1208:	4638      	mov	r0, r7
    120a:	f000 faf9 	bl	1800 <KeccakF1600_StateXORBytes>
    120e:	e7de      	b.n	11ce <sha3_384+0xae>

00001210 <sha3_512>:
 * Arguments:   - uint8_t *output:      pointer to output
 *              - const uint8_t *input: pointer to input
 *              - size_t inlen:         length of input in bytes
 **************************************************/
void sha3_512(uint8_t *output, const uint8_t *input, size_t inlen)
{
    1210:	e92d 43f0 	stmdb	sp!, {r4, r5, r6, r7, r8, r9, lr}
    1214:	b0b7      	sub	sp, #220	@ 0xdc
    1216:	4605      	mov	r5, r0
    1218:	460e      	mov	r6, r1
    121a:	4614      	mov	r4, r2
    121c:	466b      	mov	r3, sp
    121e:	aa32      	add	r2, sp, #200	@ 0xc8
        s_inc[i] = 0;
    1220:	2000      	movs	r0, #0
    1222:	2100      	movs	r1, #0
    1224:	e9e3 0102 	strd	r0, r1, [r3, #8]!
    for (i = 0; i < 25; ++i) {
    1228:	4293      	cmp	r3, r2
    122a:	d1fb      	bne.n	1224 <sha3_512+0x14>
    while (mlen + s_inc[25] >= r) {
    122c:	2c47      	cmp	r4, #71	@ 0x47
    s_inc[25] = 0;
    122e:	e9cd 0134 	strd	r0, r1, [sp, #208]	@ 0xd0
    while (mlen + s_inc[25] >= r) {
    1232:	f04f 0200 	mov.w	r2, #0
    1236:	af02      	add	r7, sp, #8
    1238:	d91e      	bls.n	1278 <sha3_512+0x68>
        s_inc[25] = 0;
    123a:	f04f 0800 	mov.w	r8, #0
    123e:	f04f 0900 	mov.w	r9, #0
        KeccakF1600_StateXORBytes(s_inc, m, s_inc[25], r-s_inc[25]);
    1242:	4631      	mov	r1, r6
    1244:	f1c2 0348 	rsb	r3, r2, #72	@ 0x48
    1248:	4638      	mov	r0, r7
    124a:	f000 fad9 	bl	1800 <KeccakF1600_StateXORBytes>
        mlen -= (size_t)(r - s_inc[25]);
    124e:	9b34      	ldr	r3, [sp, #208]	@ 0xd0
        KeccakF1600_StatePermute(s_inc);
    1250:	4638      	mov	r0, r7
        mlen -= (size_t)(r - s_inc[25]);
    1252:	f1a3 0248 	sub.w	r2, r3, #72	@ 0x48
        m += r - s_inc[25];
    1256:	f1c3 0348 	rsb	r3, r3, #72	@ 0x48
        mlen -= (size_t)(r - s_inc[25]);
    125a:	4414      	add	r4, r2
        m += r - s_inc[25];
    125c:	441e      	add	r6, r3
        s_inc[25] = 0;
    125e:	e9cd 8934 	strd	r8, r9, [sp, #208]	@ 0xd0
        KeccakF1600_StatePermute(s_inc);
    1262:	f000 fe4d 	bl	1f00 <KeccakF1600_StatePermute>
    while (mlen + s_inc[25] >= r) {
    1266:	e9dd 2334 	ldrd	r2, r3, [sp, #208]	@ 0xd0
    126a:	1911      	adds	r1, r2, r4
    126c:	f143 0300 	adc.w	r3, r3, #0
    1270:	2948      	cmp	r1, #72	@ 0x48
    1272:	f173 0300 	sbcs.w	r3, r3, #0
    1276:	d2e4      	bcs.n	1242 <sha3_512+0x32>
    KeccakF1600_StateXORBytes(s_inc, m, s_inc[25], mlen);
    1278:	4631      	mov	r1, r6
    127a:	4623      	mov	r3, r4
    127c:	4638      	mov	r0, r7
    127e:	f000 fabf 	bl	1800 <KeccakF1600_StateXORBytes>
    s_inc[25] += mlen;
    1282:	e9dd 2334 	ldrd	r2, r3, [sp, #208]	@ 0xd0
    1286:	2106      	movs	r1, #6
    1288:	18a2      	adds	r2, r4, r2
    128a:	f143 0300 	adc.w	r3, r3, #0
    128e:	f88d 1007 	strb.w	r1, [sp, #7]
    if(s_inc[25] == r-1){
    1292:	f1a2 0147 	sub.w	r1, r2, #71	@ 0x47
    1296:	4319      	orrs	r1, r3
    s_inc[25] += mlen;
    1298:	e9cd 2334 	strd	r2, r3, [sp, #208]	@ 0xd0
    if(s_inc[25] == r-1){
    129c:	d025      	beq.n	12ea <sha3_512+0xda>
      KeccakF1600_StateXORBytes(s_inc, &p, s_inc[25], 1);
    129e:	2301      	movs	r3, #1
    12a0:	f10d 0107 	add.w	r1, sp, #7
    12a4:	4638      	mov	r0, r7
    12a6:	f000 faab 	bl	1800 <KeccakF1600_StateXORBytes>
      p = 128;
    12aa:	2280      	movs	r2, #128	@ 0x80
    12ac:	f88d 2007 	strb.w	r2, [sp, #7]
      KeccakF1600_StateXORBytes(s_inc, &p, r-1, 1);
    12b0:	2301      	movs	r3, #1
    12b2:	f10d 0107 	add.w	r1, sp, #7
    12b6:	2247      	movs	r2, #71	@ 0x47
    12b8:	4638      	mov	r0, r7
    12ba:	f000 faa1 	bl	1800 <KeccakF1600_StateXORBytes>
    s_inc[25] = 0;
    12be:	2000      	movs	r0, #0
    12c0:	2100      	movs	r1, #0
    12c2:	e9cd 0134 	strd	r0, r1, [sp, #208]	@ 0xd0
    KeccakF1600_StateExtractBytes(s_inc, h, r-s_inc[25], len);
    12c6:	2300      	movs	r3, #0
    12c8:	4629      	mov	r1, r5
    12ca:	2248      	movs	r2, #72	@ 0x48
    12cc:	4638      	mov	r0, r7
    12ce:	f000 fc17 	bl	1b00 <KeccakF1600_StateExtractBytes>
        KeccakF1600_StatePermute(s_inc);
    12d2:	4638      	mov	r0, r7
    12d4:	f000 fe14 	bl	1f00 <KeccakF1600_StatePermute>
        KeccakF1600_StateExtractBytes(s_inc, h, 0, len);
    12d8:	2340      	movs	r3, #64	@ 0x40
    12da:	2200      	movs	r2, #0
    12dc:	4629      	mov	r1, r5
    12de:	4638      	mov	r0, r7
    12e0:	f000 fc0e 	bl	1b00 <KeccakF1600_StateExtractBytes>
  keccak_inc_squeeze(output, 64, state.ctx, SHA3_512_RATE);
#ifdef PROFILE_HASHING
  uint64_t t1 = hal_get_time();
  hash_cycles += (t1-t0);
#endif
}
    12e4:	b037      	add	sp, #220	@ 0xdc
    12e6:	e8bd 83f0 	ldmia.w	sp!, {r4, r5, r6, r7, r8, r9, pc}
      p |= 128;
    12ea:	2186      	movs	r1, #134	@ 0x86
    12ec:	f88d 1007 	strb.w	r1, [sp, #7]
      KeccakF1600_StateXORBytes(s_inc, &p, s_inc[25], 1);
    12f0:	2301      	movs	r3, #1
    12f2:	2247      	movs	r2, #71	@ 0x47
    12f4:	f10d 0107 	add.w	r1, sp, #7
    12f8:	4638      	mov	r0, r7
    12fa:	f000 fa81 	bl	1800 <KeccakF1600_StateXORBytes>
    12fe:	e7de      	b.n	12be <sha3_512+0xae>

00001300 <sha3_512_inc_init>:
void sha3_512_inc_init(sha3_512incctx *state) {
    1300:	ed9f 7b07 	vldr	d7, [pc, #28]	@ 1320 <sha3_512_inc_init+0x20>
    1304:	f1a0 0308 	sub.w	r3, r0, #8
    1308:	f100 02c0 	add.w	r2, r0, #192	@ 0xc0
    130c:	3308      	adds	r3, #8
    130e:	4293      	cmp	r3, r2
    1310:	ed83 7b00 	vstr	d7, [r3]
    1314:	d1fa      	bne.n	130c <sha3_512_inc_init+0xc>
    1316:	ed80 7b32 	vstr	d7, [r0, #200]	@ 0xc8
    131a:	4770      	bx	lr
    131c:	f3af 8000 	nop.w
	...

00001328 <sha3_512_inc_absorb>:
  uint64_t t1 = hal_get_time();
  hash_cycles += (t1-t0);
#endif
}

void sha3_512_inc_absorb(sha3_512incctx *state, const uint8_t *input, size_t inlen) {
    1328:	e92d 4370 	stmdb	sp!, {r4, r5, r6, r8, r9, lr}
    132c:	4615      	mov	r5, r2
    132e:	4604      	mov	r4, r0
    while (mlen + s_inc[25] >= r) {
    1330:	e9d0 2032 	ldrd	r2, r0, [r0, #200]	@ 0xc8
    1334:	18ab      	adds	r3, r5, r2
    1336:	f140 0000 	adc.w	r0, r0, #0
    133a:	2b48      	cmp	r3, #72	@ 0x48
    133c:	f170 0000 	sbcs.w	r0, r0, #0
void sha3_512_inc_absorb(sha3_512incctx *state, const uint8_t *input, size_t inlen) {
    1340:	460e      	mov	r6, r1
    while (mlen + s_inc[25] >= r) {
    1342:	d31f      	bcc.n	1384 <sha3_512_inc_absorb+0x5c>
        s_inc[25] = 0;
    1344:	f04f 0800 	mov.w	r8, #0
    1348:	f04f 0900 	mov.w	r9, #0
        KeccakF1600_StateXORBytes(s_inc, m, s_inc[25], r-s_inc[25]);
    134c:	f1c2 0348 	rsb	r3, r2, #72	@ 0x48
    1350:	4631      	mov	r1, r6
    1352:	4620      	mov	r0, r4
    1354:	f000 fa54 	bl	1800 <KeccakF1600_StateXORBytes>
        mlen -= (size_t)(r - s_inc[25]);
    1358:	f8d4 30c8 	ldr.w	r3, [r4, #200]	@ 0xc8
        KeccakF1600_StatePermute(s_inc);
    135c:	4620      	mov	r0, r4
        mlen -= (size_t)(r - s_inc[25]);
    135e:	f1a3 0248 	sub.w	r2, r3, #72	@ 0x48
        s_inc[25] = 0;
    1362:	e9c4 8932 	strd	r8, r9, [r4, #200]	@ 0xc8
        m += r - s_inc[25];
    1366:	f1c3 0348 	rsb	r3, r3, #72	@ 0x48
        mlen -= (size_t)(r - s_inc[25]);
    136a:	4415      	add	r5, r2
        m += r - s_inc[25];
    136c:	441e      	add	r6, r3
        KeccakF1600_StatePermute(s_inc);
    136e:	f000 fdc7 	bl	1f00 <KeccakF1600_StatePermute>
    while (mlen + s_inc[25] >= r) {
    1372:	e9d4 2032 	ldrd	r2, r0, [r4, #200]	@ 0xc8
    1376:	1953      	adds	r3, r2, r5
    1378:	f140 0000 	adc.w	r0, r0, #0
    137c:	2b48      	cmp	r3, #72	@ 0x48
    137e:	f170 0000 	sbcs.w	r0, r0, #0
    1382:	d2e3      	bcs.n	134c <sha3_512_inc_absorb+0x24>
    KeccakF1600_StateXORBytes(s_inc, m, s_inc[25], mlen);
    1384:	462b      	mov	r3, r5
    1386:	4631      	mov	r1, r6
    1388:	4620      	mov	r0, r4
    138a:	f000 fa39 	bl	1800 <KeccakF1600_StateXORBytes>
    s_inc[25] += mlen;
    138e:	e9d4 3232 	ldrd	r3, r2, [r4, #200]	@ 0xc8
    1392:	195b      	adds	r3, r3, r5
    1394:	f142 0200 	adc.w	r2, r2, #0
    1398:	e9c4 3232 	strd	r3, r2, [r4, #200]	@ 0xc8
    keccak_inc_absorb(state->ctx, SHA3_512_RATE, input, inlen);
#ifdef PROFILE_HASHING
  uint64_t t1 = hal_get_time();
  hash_cycles += (t1-t0);
#endif
}
    139c:	e8bd 8370 	ldmia.w	sp!, {r4, r5, r6, r8, r9, pc}

000013a0 <sha3_512_inc_finalize>:

void sha3_512_inc_finalize(uint8_t *output, sha3_512incctx *state) {
    13a0:	b570      	push	{r4, r5, r6, lr}
    13a2:	460d      	mov	r5, r1
    if(s_inc[25] == r-1){
    13a4:	e9d1 2132 	ldrd	r2, r1, [r1, #200]	@ 0xc8
void sha3_512_inc_finalize(uint8_t *output, sha3_512incctx *state) {
    13a8:	b092      	sub	sp, #72	@ 0x48
    13aa:	2306      	movs	r3, #6
    13ac:	f88d 3000 	strb.w	r3, [sp]
    if(s_inc[25] == r-1){
    13b0:	f1a2 0347 	sub.w	r3, r2, #71	@ 0x47
    13b4:	430b      	orrs	r3, r1
void sha3_512_inc_finalize(uint8_t *output, sha3_512incctx *state) {
    13b6:	4604      	mov	r4, r0
      KeccakF1600_StateXORBytes(s_inc, &p, s_inc[25], 1);
    13b8:	466e      	mov	r6, sp
    if(s_inc[25] == r-1){
    13ba:	d03c      	beq.n	1436 <sha3_512_inc_finalize+0x96>
      KeccakF1600_StateXORBytes(s_inc, &p, s_inc[25], 1);
    13bc:	2301      	movs	r3, #1
    13be:	4631      	mov	r1, r6
    13c0:	4628      	mov	r0, r5
    13c2:	f000 fa1d 	bl	1800 <KeccakF1600_StateXORBytes>
      p = 128;
    13c6:	2280      	movs	r2, #128	@ 0x80
      KeccakF1600_StateXORBytes(s_inc, &p, r-1, 1);
    13c8:	4631      	mov	r1, r6
      p = 128;
    13ca:	f88d 2000 	strb.w	r2, [sp]
      KeccakF1600_StateXORBytes(s_inc, &p, r-1, 1);
    13ce:	4628      	mov	r0, r5
    13d0:	2301      	movs	r3, #1
    13d2:	2247      	movs	r2, #71	@ 0x47
    13d4:	f000 fa14 	bl	1800 <KeccakF1600_StateXORBytes>
    s_inc[25] = 0;
    13d8:	2200      	movs	r2, #0
    13da:	2300      	movs	r3, #0
    13dc:	e9c5 2332 	strd	r2, r3, [r5, #200]	@ 0xc8
    KeccakF1600_StatePermute(s);
    13e0:	4628      	mov	r0, r5
    13e2:	f000 fd8d 	bl	1f00 <KeccakF1600_StatePermute>
    KeccakF1600_StateExtractBytes(s, h, 0, r);
    13e6:	4631      	mov	r1, r6
    13e8:	4628      	mov	r0, r5
    13ea:	2348      	movs	r3, #72	@ 0x48
    13ec:	2200      	movs	r2, #0
    13ee:	f000 fb87 	bl	1b00 <KeccakF1600_StateExtractBytes>
    keccak_inc_finalize(state->ctx, SHA3_512_RATE, 0x06);

    keccak_squeezeblocks(t, 1, state->ctx, SHA3_512_RATE);

    for (size_t i = 0; i < 64; i++) {
        output[i] = t[i];
    13f2:	9b01      	ldr	r3, [sp, #4]
    13f4:	6063      	str	r3, [r4, #4]
    13f6:	9b02      	ldr	r3, [sp, #8]
    13f8:	60a3      	str	r3, [r4, #8]
    13fa:	9b03      	ldr	r3, [sp, #12]
    13fc:	60e3      	str	r3, [r4, #12]
    13fe:	9b04      	ldr	r3, [sp, #16]
    1400:	6123      	str	r3, [r4, #16]
    1402:	9b05      	ldr	r3, [sp, #20]
    1404:	6163      	str	r3, [r4, #20]
    1406:	9b06      	ldr	r3, [sp, #24]
    1408:	61a3      	str	r3, [r4, #24]
    140a:	9b07      	ldr	r3, [sp, #28]
    140c:	61e3      	str	r3, [r4, #28]
    140e:	9b08      	ldr	r3, [sp, #32]
    1410:	6223      	str	r3, [r4, #32]
    1412:	9b09      	ldr	r3, [sp, #36]	@ 0x24
    1414:	6263      	str	r3, [r4, #36]	@ 0x24
    1416:	9b0a      	ldr	r3, [sp, #40]	@ 0x28
    1418:	62a3      	str	r3, [r4, #40]	@ 0x28
    141a:	9b0b      	ldr	r3, [sp, #44]	@ 0x2c
    141c:	62e3      	str	r3, [r4, #44]	@ 0x2c
    141e:	e9dd 120d 	ldrd	r1, r2, [sp, #52]	@ 0x34
    1422:	9b0c      	ldr	r3, [sp, #48]	@ 0x30
    1424:	9800      	ldr	r0, [sp, #0]
    1426:	6323      	str	r3, [r4, #48]	@ 0x30
    1428:	9b0f      	ldr	r3, [sp, #60]	@ 0x3c
    142a:	6020      	str	r0, [r4, #0]
    142c:	6361      	str	r1, [r4, #52]	@ 0x34
    142e:	63a2      	str	r2, [r4, #56]	@ 0x38
    1430:	63e3      	str	r3, [r4, #60]	@ 0x3c
    }
#ifdef PROFILE_HASHING
  uint64_t t1 = hal_get_time();
  hash_cycles += (t1-t0);
#endif
}
    1432:	b012      	add	sp, #72	@ 0x48
    1434:	bd70      	pop	{r4, r5, r6, pc}
      p |= 128;
    1436:	2286      	movs	r2, #134	@ 0x86
    1438:	e7c6      	b.n	13c8 <sha3_512_inc_finalize+0x28>
    143a:	bf00      	nop

0000143c <sha3_512_inc_ctx_clone>:

void sha3_512_inc_ctx_clone(sha3_512incctx *dest, const sha3_512incctx *src) {
    143c:	22d0      	movs	r2, #208	@ 0xd0
    143e:	f012 bebd 	b.w	141bc <memcpy>
    1442:	bf00      	nop

00001444 <sha3_512_inc_ctx_release>:
    memcpy(dest, src, sizeof(sha3_512incctx));
}

void sha3_512_inc_ctx_release(sha3_512incctx *state) {
    1444:	4770      	bx	lr
    1446:	bf00      	nop

00001448 <cshake256_simple_absorb>:
}

/********** cSHAKE256 ***********/

void cshake256_simple_absorb(shake256ctx *state, uint16_t cstm, const uint8_t *in, size_t inlen)
{
    1448:	b570      	push	{r4, r5, r6, lr}
#endif
  uint8_t sep[8];
  size_t i;

  for (i = 0; i < 25; i++)
    state->ctx[i] = 0;
    144a:	ed9f 7b15 	vldr	d7, [pc, #84]	@ 14a0 <cshake256_simple_absorb+0x58>
{
    144e:	b082      	sub	sp, #8
    1450:	4604      	mov	r4, r0
    1452:	4615      	mov	r5, r2
    1454:	461e      	mov	r6, r3
    1456:	f1a0 0c08 	sub.w	ip, r0, #8
    145a:	f100 0ec0 	add.w	lr, r0, #192	@ 0xc0
    state->ctx[i] = 0;
    145e:	f10c 0c08 	add.w	ip, ip, #8
  for (i = 0; i < 25; i++)
    1462:	45f4      	cmp	ip, lr
    state->ctx[i] = 0;
    1464:	ed8c 7b00 	vstr	d7, [ip]
  for (i = 0; i < 25; i++)
    1468:	d1f9      	bne.n	145e <cshake256_simple_absorb+0x16>

  /* Absorb customization (domain-separation) string */
  sep[0] = 0x01;
    146a:	4b0f      	ldr	r3, [pc, #60]	@ (14a8 <cshake256_simple_absorb+0x60>)
    146c:	9300      	str	r3, [sp, #0]
  sep[1] = 0x88;
  sep[2] = 0x01;
  sep[3] = 0x00;
  sep[4] = 0x01;
    146e:	f241 0301 	movw	r3, #4097	@ 0x1001
    1472:	f8ad 3004 	strh.w	r3, [sp, #4]
  sep[5] = 16; // fixed bitlen of cstm
  sep[6] = cstm & 0xff;
    1476:	f8ad 1006 	strh.w	r1, [sp, #6]
  sep[7] = cstm >> 8;

  KeccakF1600_StateXORBytes(state->ctx, sep, 0, 8);
    147a:	2308      	movs	r3, #8
    147c:	4669      	mov	r1, sp
    147e:	2200      	movs	r2, #0
    1480:	4620      	mov	r0, r4
    1482:	f000 f9bd 	bl	1800 <KeccakF1600_StateXORBytes>
  KeccakF1600_StatePermute(state->ctx);
    1486:	4620      	mov	r0, r4
    1488:	f000 fd3a 	bl	1f00 <KeccakF1600_StatePermute>

  /* Absorb input */
  keccak_absorb(state->ctx, SHAKE256_RATE, in, inlen, 0x04);
    148c:	2304      	movs	r3, #4
    148e:	4632      	mov	r2, r6
    1490:	4629      	mov	r1, r5
    1492:	4620      	mov	r0, r4
    1494:	f7ff f83c 	bl	510 <keccak_absorb.constprop.0>
#ifdef PROFILE_HASHING
  uint64_t t1 = hal_get_time();
  hash_cycles += (t1-t0);
#endif
}
    1498:	b002      	add	sp, #8
    149a:	bd70      	pop	{r4, r5, r6, pc}
    149c:	f3af 8000 	nop.w
	...
    14a8:	00018801 	.word	0x00018801

000014ac <cshake256_simple_squeezeblocks>:


void cshake256_simple_squeezeblocks(uint8_t *output, size_t nblocks, shake256ctx *state)
    14ac:	b189      	cbz	r1, 14d2 <cshake256_simple_squeezeblocks+0x26>
    14ae:	b570      	push	{r4, r5, r6, lr}
    14b0:	4605      	mov	r5, r0
    14b2:	4616      	mov	r6, r2
    14b4:	460c      	mov	r4, r1
    14b6:	4630      	mov	r0, r6
    14b8:	f000 fd22 	bl	1f00 <KeccakF1600_StatePermute>
    14bc:	4629      	mov	r1, r5
    14be:	2388      	movs	r3, #136	@ 0x88
    14c0:	2200      	movs	r2, #0
    14c2:	4630      	mov	r0, r6
    14c4:	f000 fb1c 	bl	1b00 <KeccakF1600_StateExtractBytes>
    14c8:	3c01      	subs	r4, #1
    14ca:	f105 0588 	add.w	r5, r5, #136	@ 0x88
    14ce:	d1f2      	bne.n	14b6 <cshake256_simple_squeezeblocks+0xa>
    14d0:	bd70      	pop	{r4, r5, r6, pc}
    14d2:	4770      	bx	lr

000014d4 <cshake256_simple>:
#endif
}


void cshake256_simple(uint8_t *output, size_t outlen, uint16_t cstm, const uint8_t *in, size_t inlen)
{
    14d4:	e92d 4df0 	stmdb	sp!, {r4, r5, r6, r7, r8, sl, fp, lr}
    14d8:	b0b8      	sub	sp, #224	@ 0xe0
    14da:	4607      	mov	r7, r0
    14dc:	9d40      	ldr	r5, [sp, #256]	@ 0x100
    14de:	460e      	mov	r6, r1
    14e0:	4698      	mov	r8, r3
    14e2:	f10d 0c08 	add.w	ip, sp, #8
    14e6:	ab34      	add	r3, sp, #208	@ 0xd0
        s_inc[i] = 0;
    14e8:	2000      	movs	r0, #0
    14ea:	2100      	movs	r1, #0
    14ec:	e9ec 0102 	strd	r0, r1, [ip, #8]!
    for (i = 0; i < 25; ++i) {
    14f0:	459c      	cmp	ip, r3
    14f2:	d1fb      	bne.n	14ec <cshake256_simple+0x18>


  keccak_inc_init(state.ctx);

  /* Absorb customization (domain-separation) string */
  sep[0] = 0x01;
    14f4:	4b46      	ldr	r3, [pc, #280]	@ (1610 <cshake256_simple+0x13c>)
    14f6:	9302      	str	r3, [sp, #8]
  sep[1] = 0x88;
  sep[2] = 0x01;
  sep[3] = 0x00;
  sep[4] = 0x01;
    14f8:	f241 0301 	movw	r3, #4097	@ 0x1001
    s_inc[25] = 0;
    14fc:	e9cd 0136 	strd	r0, r1, [sp, #216]	@ 0xd8
  sep[5] = 16; // fixed bitlen of cstm
  sep[6] = cstm & 0xff;
    1500:	f8ad 200e 	strh.w	r2, [sp, #14]
  sep[7] = cstm >> 8;

  KeccakF1600_StateXORBytes(state.ctx, sep, 0, 8);
    1504:	a902      	add	r1, sp, #8
    1506:	2200      	movs	r2, #0
  sep[4] = 0x01;
    1508:	f8ad 300c 	strh.w	r3, [sp, #12]
  KeccakF1600_StateXORBytes(state.ctx, sep, 0, 8);
    150c:	a804      	add	r0, sp, #16
    150e:	2308      	movs	r3, #8
    1510:	f000 f976 	bl	1800 <KeccakF1600_StateXORBytes>
  KeccakF1600_StatePermute(state.ctx);
    1514:	a804      	add	r0, sp, #16
    1516:	f000 fcf3 	bl	1f00 <KeccakF1600_StatePermute>
    while (mlen + s_inc[25] >= r) {
    151a:	e9dd 2436 	ldrd	r2, r4, [sp, #216]	@ 0xd8
    151e:	1953      	adds	r3, r2, r5
    1520:	f144 0400 	adc.w	r4, r4, #0
    1524:	2b88      	cmp	r3, #136	@ 0x88
    1526:	f174 0400 	sbcs.w	r4, r4, #0
    152a:	d31e      	bcc.n	156a <cshake256_simple+0x96>
        s_inc[25] = 0;
    152c:	f04f 0a00 	mov.w	sl, #0
    1530:	f04f 0b00 	mov.w	fp, #0
        KeccakF1600_StateXORBytes(s_inc, m, s_inc[25], r-s_inc[25]);
    1534:	f1c2 0388 	rsb	r3, r2, #136	@ 0x88
    1538:	4641      	mov	r1, r8
    153a:	a804      	add	r0, sp, #16
    153c:	f000 f960 	bl	1800 <KeccakF1600_StateXORBytes>
        mlen -= (size_t)(r - s_inc[25]);
    1540:	9b36      	ldr	r3, [sp, #216]	@ 0xd8
        KeccakF1600_StatePermute(s_inc);
    1542:	a804      	add	r0, sp, #16
        mlen -= (size_t)(r - s_inc[25]);
    1544:	f1a3 0288 	sub.w	r2, r3, #136	@ 0x88
        m += r - s_inc[25];
    1548:	f1c3 0388 	rsb	r3, r3, #136	@ 0x88
        mlen -= (size_t)(r - s_inc[25]);
    154c:	4415      	add	r5, r2
        m += r - s_inc[25];
    154e:	4498      	add	r8, r3
        s_inc[25] = 0;
    1550:	e9cd ab36 	strd	sl, fp, [sp, #216]	@ 0xd8
        KeccakF1600_StatePermute(s_inc);
    1554:	f000 fcd4 	bl	1f00 <KeccakF1600_StatePermute>
    while (mlen + s_inc[25] >= r) {
    1558:	e9dd 2436 	ldrd	r2, r4, [sp, #216]	@ 0xd8
    155c:	1953      	adds	r3, r2, r5
    155e:	f144 0400 	adc.w	r4, r4, #0
    1562:	2b88      	cmp	r3, #136	@ 0x88
    1564:	f174 0400 	sbcs.w	r4, r4, #0
    1568:	d2e4      	bcs.n	1534 <cshake256_simple+0x60>
    KeccakF1600_StateXORBytes(s_inc, m, s_inc[25], mlen);
    156a:	4641      	mov	r1, r8
    156c:	462b      	mov	r3, r5
    156e:	a804      	add	r0, sp, #16
    1570:	f000 f946 	bl	1800 <KeccakF1600_StateXORBytes>
    s_inc[25] += mlen;
    1574:	9b36      	ldr	r3, [sp, #216]	@ 0xd8
    1576:	18ea      	adds	r2, r5, r3
    1578:	9b37      	ldr	r3, [sp, #220]	@ 0xdc
    157a:	9236      	str	r2, [sp, #216]	@ 0xd8
    157c:	f04f 0104 	mov.w	r1, #4
    1580:	f143 0300 	adc.w	r3, r3, #0
    1584:	f88d 1007 	strb.w	r1, [sp, #7]
    if(s_inc[25] == r-1){
    1588:	f1a2 0187 	sub.w	r1, r2, #135	@ 0x87
    158c:	4319      	orrs	r1, r3
    s_inc[25] += mlen;
    158e:	9337      	str	r3, [sp, #220]	@ 0xdc
    if(s_inc[25] == r-1){
    1590:	d032      	beq.n	15f8 <cshake256_simple+0x124>
      KeccakF1600_StateXORBytes(s_inc, &p, s_inc[25], 1);
    1592:	2301      	movs	r3, #1
    1594:	f10d 0107 	add.w	r1, sp, #7
    1598:	a804      	add	r0, sp, #16
    159a:	f000 f931 	bl	1800 <KeccakF1600_StateXORBytes>
      p = 128;
    159e:	2380      	movs	r3, #128	@ 0x80
    15a0:	f88d 3007 	strb.w	r3, [sp, #7]
      KeccakF1600_StateXORBytes(s_inc, &p, r-1, 1);
    15a4:	f10d 0107 	add.w	r1, sp, #7
    15a8:	2301      	movs	r3, #1
    15aa:	2287      	movs	r2, #135	@ 0x87
    15ac:	a804      	add	r0, sp, #16
    15ae:	f000 f927 	bl	1800 <KeccakF1600_StateXORBytes>
    s_inc[25] = 0;
    15b2:	2200      	movs	r2, #0
    15b4:	2300      	movs	r3, #0
    15b6:	e9cd 2336 	strd	r2, r3, [sp, #216]	@ 0xd8
    KeccakF1600_StateExtractBytes(s_inc, h, r-s_inc[25], len);
    15ba:	4639      	mov	r1, r7
    15bc:	2300      	movs	r3, #0
    15be:	2288      	movs	r2, #136	@ 0x88
    15c0:	a804      	add	r0, sp, #16
    15c2:	f000 fa9d 	bl	1b00 <KeccakF1600_StateExtractBytes>
    while (outlen > 0) {
    15c6:	b1a6      	cbz	r6, 15f2 <cshake256_simple+0x11e>
        KeccakF1600_StateExtractBytes(s_inc, h, 0, len);
    15c8:	2500      	movs	r5, #0
        KeccakF1600_StatePermute(s_inc);
    15ca:	a804      	add	r0, sp, #16
    15cc:	f000 fc98 	bl	1f00 <KeccakF1600_StatePermute>
        if(outlen < r)
    15d0:	2e88      	cmp	r6, #136	@ 0x88
    15d2:	4634      	mov	r4, r6
    15d4:	bf28      	it	cs
    15d6:	2488      	movcs	r4, #136	@ 0x88
        KeccakF1600_StateExtractBytes(s_inc, h, 0, len);
    15d8:	4623      	mov	r3, r4
    15da:	4639      	mov	r1, r7
    15dc:	2200      	movs	r2, #0
    15de:	a804      	add	r0, sp, #16
    15e0:	f000 fa8e 	bl	1b00 <KeccakF1600_StateExtractBytes>
        s_inc[25] = r - len;
    15e4:	f1c4 0388 	rsb	r3, r4, #136	@ 0x88
    while (outlen > 0) {
    15e8:	1b36      	subs	r6, r6, r4
        s_inc[25] = r - len;
    15ea:	e9cd 3536 	strd	r3, r5, [sp, #216]	@ 0xd8
        h += len;
    15ee:	4427      	add	r7, r4
    while (outlen > 0) {
    15f0:	d1eb      	bne.n	15ca <cshake256_simple+0xf6>
  keccak_inc_squeeze(output, outlen, state.ctx, SHAKE256_RATE);
#ifdef PROFILE_HASHING
  uint64_t t1 = hal_get_time();
  hash_cycles += (t1-t0);
#endif
}
    15f2:	b038      	add	sp, #224	@ 0xe0
    15f4:	e8bd 8df0 	ldmia.w	sp!, {r4, r5, r6, r7, r8, sl, fp, pc}
      p |= 128;
    15f8:	2284      	movs	r2, #132	@ 0x84
    15fa:	f88d 2007 	strb.w	r2, [sp, #7]
      KeccakF1600_StateXORBytes(s_inc, &p, s_inc[25], 1);
    15fe:	2301      	movs	r3, #1
    1600:	2287      	movs	r2, #135	@ 0x87
    1602:	f10d 0107 	add.w	r1, sp, #7
    1606:	a804      	add	r0, sp, #16
    1608:	f000 f8fa 	bl	1800 <KeccakF1600_StateXORBytes>
    160c:	e7d1      	b.n	15b2 <cshake256_simple+0xde>
    160e:	bf00      	nop
    1610:	00018801 	.word	0x00018801
	...

00001700 <KeccakF1600_Initialize>:
@ void KeccakF1600_Initialize( void )
@
.align 8
.global   KeccakF1600_Initialize
KeccakF1600_Initialize:
	bx		lr
    1700:	4770      	bx	lr
    1702:	bf00      	nop
    1704:	f3af 8000 	nop.w
    1708:	f3af 8000 	nop.w
    170c:	f3af 8000 	nop.w
    1710:	f3af 8000 	nop.w
    1714:	f3af 8000 	nop.w
    1718:	f3af 8000 	nop.w
    171c:	f3af 8000 	nop.w
    1720:	f3af 8000 	nop.w
    1724:	f3af 8000 	nop.w
    1728:	f3af 8000 	nop.w
    172c:	f3af 8000 	nop.w
    1730:	f3af 8000 	nop.w
    1734:	f3af 8000 	nop.w
    1738:	f3af 8000 	nop.w
    173c:	f3af 8000 	nop.w
	...

00001800 <KeccakF1600_StateXORBytes>:
@ void KeccakF1600_StateXORBytes(void *state, const unsigned char *data, unsigned int offset, unsigned int length)
@
.align 8
.global   KeccakF1600_StateXORBytes
KeccakF1600_StateXORBytes:
	cbz		r3, KeccakF1600_StateXORBytes_Exit1
    1800:	b303      	cbz	r3, 1844 <KeccakF1600_StateXORBytes_Exit1>
	push	{r4 - r8, lr}							@ then
    1802:	e92d 41f0 	stmdb	sp!, {r4, r5, r6, r7, r8, lr}
	bic		r4, r2, #7								@ offset &= ~7
    1806:	f022 0407 	bic.w	r4, r2, #7
	adds	r0, r0, r4								@ add whole lane offset to state pointer
    180a:	1900      	adds	r0, r0, r4
	ands	r2, r2, #7								@ offset &= 7 (part not lane aligned)
    180c:	f012 0207 	ands.w	r2, r2, #7
	beq		KeccakF1600_StateXORBytes_CheckLanes	@ .if offset != 0
    1810:	d00b      	beq.n	182a <KeccakF1600_StateXORBytes_CheckLanes>
	movs	r4, r3									@ then, do remaining bytes in first lane
    1812:	001c      	movs	r4, r3
	rsb		r5, r2, #8								@ max size in lane = 8 - offset
    1814:	f1c2 0508 	rsb	r5, r2, #8
	cmp		r4, r5
    1818:	42ac      	cmp	r4, r5
	ble		KeccakF1600_StateXORBytes_BytesAlign
    181a:	dd00      	ble.n	181e <KeccakF1600_StateXORBytes_BytesAlign>
	movs	r4, r5
    181c:	002c      	movs	r4, r5

0000181e <KeccakF1600_StateXORBytes_BytesAlign>:
KeccakF1600_StateXORBytes_BytesAlign:
	sub		r8, r3, r4								@ size left
    181e:	eba3 0804 	sub.w	r8, r3, r4
	movs	r3, r4
    1822:	0023      	movs	r3, r4
	bl		__KeccakF1600_StateXORBytesInLane
    1824:	f000 f8ec 	bl	1a00 <__KeccakF1600_StateXORBytesInLane>
	mov		r3, r8
    1828:	4643      	mov	r3, r8

0000182a <KeccakF1600_StateXORBytes_CheckLanes>:
KeccakF1600_StateXORBytes_CheckLanes:
	lsrs	r2, r3, #3								@ .if length >= 8
    182a:	08da      	lsrs	r2, r3, #3
	beq		KeccakF1600_StateXORBytes_Bytes
    182c:	d004      	beq.n	1838 <KeccakF1600_StateXORBytes_Bytes>
	mov		r8, r3
    182e:	4698      	mov	r8, r3
	bl		__KeccakF1600_StateXORLanes
    1830:	f000 f866 	bl	1900 <__KeccakF1600_StateXORLanes>
	and		r3, r8, #7
    1834:	f008 0307 	and.w	r3, r8, #7

00001838 <KeccakF1600_StateXORBytes_Bytes>:
KeccakF1600_StateXORBytes_Bytes:
	cbz		r3, KeccakF1600_StateXORBytes_Exit
    1838:	b113      	cbz	r3, 1840 <KeccakF1600_StateXORBytes_Exit>
	movs	r2, #0
    183a:	2200      	movs	r2, #0
	bl		__KeccakF1600_StateXORBytesInLane
    183c:	f000 f8e0 	bl	1a00 <__KeccakF1600_StateXORBytesInLane>

00001840 <KeccakF1600_StateXORBytes_Exit>:
KeccakF1600_StateXORBytes_Exit:
	pop		{r4 - r8, pc}
    1840:	e8bd 81f0 	ldmia.w	sp!, {r4, r5, r6, r7, r8, pc}

00001844 <KeccakF1600_StateXORBytes_Exit1>:
KeccakF1600_StateXORBytes_Exit1:
	bx		lr
    1844:	4770      	bx	lr
    1846:	bf00      	nop
    1848:	f3af 8000 	nop.w
    184c:	f3af 8000 	nop.w
    1850:	f3af 8000 	nop.w
    1854:	f3af 8000 	nop.w
    1858:	f3af 8000 	nop.w
    185c:	f3af 8000 	nop.w
    1860:	f3af 8000 	nop.w
    1864:	f3af 8000 	nop.w
    1868:	f3af 8000 	nop.w
    186c:	f3af 8000 	nop.w
    1870:	f3af 8000 	nop.w
    1874:	f3af 8000 	nop.w
    1878:	f3af 8000 	nop.w
    187c:	f3af 8000 	nop.w
	...

00001900 <__KeccakF1600_StateXORLanes>:
@ Changed: r2-r7
@
.align 8
__KeccakF1600_StateXORLanes:
__KeccakF1600_StateXORLanes_LoopAligned:
	ldr		r4, [r1], #4
    1900:	f851 4b04 	ldr.w	r4, [r1], #4
	ldr		r5, [r1], #4
    1904:	f851 5b04 	ldr.w	r5, [r1], #4
	ldrd    r6, r7, [r0]
    1908:	e9d0 6700 	ldrd	r6, r7, [r0]
	toBitInterleaving	r4, r5, r6, r7, r3, 0
    190c:	f004 3355 	and.w	r3, r4, #1431655765	@ 0x55555555
    1910:	ea43 0353 	orr.w	r3, r3, r3, lsr #1
    1914:	f003 3333 	and.w	r3, r3, #858993459	@ 0x33333333
    1918:	ea43 0393 	orr.w	r3, r3, r3, lsr #2
    191c:	f003 330f 	and.w	r3, r3, #252645135	@ 0xf0f0f0f
    1920:	ea43 1313 	orr.w	r3, r3, r3, lsr #4
    1924:	f003 13ff 	and.w	r3, r3, #16711935	@ 0xff00ff
    1928:	f363 230f 	bfi	r3, r3, #8, #8
    192c:	ea86 2613 	eor.w	r6, r6, r3, lsr #8
    1930:	f005 3355 	and.w	r3, r5, #1431655765	@ 0x55555555
    1934:	ea43 0353 	orr.w	r3, r3, r3, lsr #1
    1938:	f003 3333 	and.w	r3, r3, #858993459	@ 0x33333333
    193c:	ea43 0393 	orr.w	r3, r3, r3, lsr #2
    1940:	f003 330f 	and.w	r3, r3, #252645135	@ 0xf0f0f0f
    1944:	ea43 1313 	orr.w	r3, r3, r3, lsr #4
    1948:	f003 13ff 	and.w	r3, r3, #16711935	@ 0xff00ff
    194c:	ea43 2313 	orr.w	r3, r3, r3, lsr #8
    1950:	ea86 4603 	eor.w	r6, r6, r3, lsl #16
    1954:	f004 33aa 	and.w	r3, r4, #2863311530	@ 0xaaaaaaaa
    1958:	ea43 0343 	orr.w	r3, r3, r3, lsl #1
    195c:	f003 33cc 	and.w	r3, r3, #3435973836	@ 0xcccccccc
    1960:	ea43 0383 	orr.w	r3, r3, r3, lsl #2
    1964:	f003 33f0 	and.w	r3, r3, #4042322160	@ 0xf0f0f0f0
    1968:	ea43 1303 	orr.w	r3, r3, r3, lsl #4
    196c:	f003 23ff 	and.w	r3, r3, #4278255360	@ 0xff00ff00
    1970:	ea43 2303 	orr.w	r3, r3, r3, lsl #8
    1974:	ea87 4713 	eor.w	r7, r7, r3, lsr #16
    1978:	f005 33aa 	and.w	r3, r5, #2863311530	@ 0xaaaaaaaa
    197c:	ea43 0343 	orr.w	r3, r3, r3, lsl #1
    1980:	f003 33cc 	and.w	r3, r3, #3435973836	@ 0xcccccccc
    1984:	ea43 0383 	orr.w	r3, r3, r3, lsl #2
    1988:	f003 33f0 	and.w	r3, r3, #4042322160	@ 0xf0f0f0f0
    198c:	ea43 1303 	orr.w	r3, r3, r3, lsl #4
    1990:	f003 23ff 	and.w	r3, r3, #4278255360	@ 0xff00ff00
    1994:	ea43 2303 	orr.w	r3, r3, r3, lsl #8
    1998:	f36f 030f 	bfc	r3, #0, #16
    199c:	405f      	eors	r7, r3
	strd	r6, r7, [r0], #8
    199e:	e8e0 6702 	strd	r6, r7, [r0], #8
	subs	r2, r2, #1
    19a2:	3a01      	subs	r2, #1
	bne		__KeccakF1600_StateXORLanes_LoopAligned
    19a4:	d1ac      	bne.n	1900 <__KeccakF1600_StateXORLanes>
	bx		lr
    19a6:	4770      	bx	lr
    19a8:	f3af 8000 	nop.w
    19ac:	f3af 8000 	nop.w
    19b0:	f3af 8000 	nop.w
    19b4:	f3af 8000 	nop.w
    19b8:	f3af 8000 	nop.w
    19bc:	f3af 8000 	nop.w
	...

00001a00 <__KeccakF1600_StateXORBytesInLane>:
@
@  Changed: r2-r7
@
.align 8
__KeccakF1600_StateXORBytesInLane:
	movs	r4, #0
    1a00:	2400      	movs	r4, #0
	movs	r5, #0
    1a02:	2500      	movs	r5, #0
	push	{ r4 - r5 }
    1a04:	b430      	push	{r4, r5}
	add		r2, r2, sp
    1a06:	446a      	add	r2, sp

00001a08 <__KeccakF1600_StateXORBytesInLane_Loop>:
__KeccakF1600_StateXORBytesInLane_Loop:
	ldrb	r5, [r1], #1
    1a08:	f811 5b01 	ldrb.w	r5, [r1], #1
	strb	r5, [r2], #1
    1a0c:	f802 5b01 	strb.w	r5, [r2], #1
	subs	r3, r3, #1
    1a10:	3b01      	subs	r3, #1
	bne		__KeccakF1600_StateXORBytesInLane_Loop
    1a12:	d1f9      	bne.n	1a08 <__KeccakF1600_StateXORBytesInLane_Loop>
	pop		{ r4 - r5 }
    1a14:	bc30      	pop	{r4, r5}
	ldrd    r6, r7, [r0]
    1a16:	e9d0 6700 	ldrd	r6, r7, [r0]
	toBitInterleaving	r4, r5, r6, r7, r3, 0
    1a1a:	f004 3355 	and.w	r3, r4, #1431655765	@ 0x55555555
    1a1e:	ea43 0353 	orr.w	r3, r3, r3, lsr #1
    1a22:	f003 3333 	and.w	r3, r3, #858993459	@ 0x33333333
    1a26:	ea43 0393 	orr.w	r3, r3, r3, lsr #2
    1a2a:	f003 330f 	and.w	r3, r3, #252645135	@ 0xf0f0f0f
    1a2e:	ea43 1313 	orr.w	r3, r3, r3, lsr #4
    1a32:	f003 13ff 	and.w	r3, r3, #16711935	@ 0xff00ff
    1a36:	f363 230f 	bfi	r3, r3, #8, #8
    1a3a:	ea86 2613 	eor.w	r6, r6, r3, lsr #8
    1a3e:	f005 3355 	and.w	r3, r5, #1431655765	@ 0x55555555
    1a42:	ea43 0353 	orr.w	r3, r3, r3, lsr #1
    1a46:	f003 3333 	and.w	r3, r3, #858993459	@ 0x33333333
    1a4a:	ea43 0393 	orr.w	r3, r3, r3, lsr #2
    1a4e:	f003 330f 	and.w	r3, r3, #252645135	@ 0xf0f0f0f
    1a52:	ea43 1313 	orr.w	r3, r3, r3, lsr #4
    1a56:	f003 13ff 	and.w	r3, r3, #16711935	@ 0xff00ff
    1a5a:	ea43 2313 	orr.w	r3, r3, r3, lsr #8
    1a5e:	ea86 4603 	eor.w	r6, r6, r3, lsl #16
    1a62:	f004 33aa 	and.w	r3, r4, #2863311530	@ 0xaaaaaaaa
    1a66:	ea43 0343 	orr.w	r3, r3, r3, lsl #1
    1a6a:	f003 33cc 	and.w	r3, r3, #3435973836	@ 0xcccccccc
    1a6e:	ea43 0383 	orr.w	r3, r3, r3, lsl #2
    1a72:	f003 33f0 	and.w	r3, r3, #4042322160	@ 0xf0f0f0f0
    1a76:	ea43 1303 	orr.w	r3, r3, r3, lsl #4
    1a7a:	f003 23ff 	and.w	r3, r3, #4278255360	@ 0xff00ff00
    1a7e:	ea43 2303 	orr.w	r3, r3, r3, lsl #8
    1a82:	ea87 4713 	eor.w	r7, r7, r3, lsr #16
    1a86:	f005 33aa 	and.w	r3, r5, #2863311530	@ 0xaaaaaaaa
    1a8a:	ea43 0343 	orr.w	r3, r3, r3, lsl #1
    1a8e:	f003 33cc 	and.w	r3, r3, #3435973836	@ 0xcccccccc
    1a92:	ea43 0383 	orr.w	r3, r3, r3, lsl #2
    1a96:	f003 33f0 	and.w	r3, r3, #4042322160	@ 0xf0f0f0f0
    1a9a:	ea43 1303 	orr.w	r3, r3, r3, lsl #4
    1a9e:	f003 23ff 	and.w	r3, r3, #4278255360	@ 0xff00ff00
    1aa2:	ea43 2303 	orr.w	r3, r3, r3, lsl #8
    1aa6:	f36f 030f 	bfc	r3, #0, #16
    1aaa:	405f      	eors	r7, r3
	strd	r6, r7, [r0], #8
    1aac:	e8e0 6702 	strd	r6, r7, [r0], #8
	bx		lr
    1ab0:	4770      	bx	lr
    1ab2:	bf00      	nop
    1ab4:	f3af 8000 	nop.w
    1ab8:	f3af 8000 	nop.w
    1abc:	f3af 8000 	nop.w
	...

00001b00 <KeccakF1600_StateExtractBytes>:
@ void KeccakF1600_StateExtractBytes(void *state, const unsigned char *data, unsigned int offset, unsigned int length)
@
.align 8
.global   KeccakF1600_StateExtractBytes
KeccakF1600_StateExtractBytes:
	cbz		r3, KeccakF1600_StateExtractBytes_Exit1	@ .if length != 0
    1b00:	b303      	cbz	r3, 1b44 <KeccakF1600_StateExtractBytes_Exit1>
	push	{r4 - r8, lr}							@ then
    1b02:	e92d 41f0 	stmdb	sp!, {r4, r5, r6, r7, r8, lr}
	bic		r4, r2, #7								@ offset &= ~7
    1b06:	f022 0407 	bic.w	r4, r2, #7
	adds	r0, r0, r4								@ add whole lane offset to state pointer
    1b0a:	1900      	adds	r0, r0, r4
	ands	r2, r2, #7								@ offset &= 7 (part not lane aligned)
    1b0c:	f012 0207 	ands.w	r2, r2, #7
	beq		KeccakF1600_StateExtractBytes_CheckLanes	@ .if offset != 0
    1b10:	d00b      	beq.n	1b2a <KeccakF1600_StateExtractBytes_CheckLanes>
	movs	r4, r3									@ then, do remaining bytes in first lane
    1b12:	001c      	movs	r4, r3
	rsb		r5, r2, #8								@ max size in lane = 8 - offset
    1b14:	f1c2 0508 	rsb	r5, r2, #8
	cmp		r4, r5
    1b18:	42ac      	cmp	r4, r5
	ble		KeccakF1600_StateExtractBytes_BytesAlign
    1b1a:	dd00      	ble.n	1b1e <KeccakF1600_StateExtractBytes_BytesAlign>
	movs	r4, r5
    1b1c:	002c      	movs	r4, r5

00001b1e <KeccakF1600_StateExtractBytes_BytesAlign>:
KeccakF1600_StateExtractBytes_BytesAlign:
	sub		r8, r3, r4								@ size left
    1b1e:	eba3 0804 	sub.w	r8, r3, r4
	movs	r3, r4
    1b22:	0023      	movs	r3, r4
	bl		__KeccakF1600_StateExtractBytesInLane
    1b24:	f000 f8ec 	bl	1d00 <__KeccakF1600_StateExtractBytesInLane>
	mov		r3, r8
    1b28:	4643      	mov	r3, r8

00001b2a <KeccakF1600_StateExtractBytes_CheckLanes>:
KeccakF1600_StateExtractBytes_CheckLanes:
	lsrs	r2, r3, #3								@ .if length >= 8
    1b2a:	08da      	lsrs	r2, r3, #3
	beq		KeccakF1600_StateExtractBytes_Bytes
    1b2c:	d004      	beq.n	1b38 <KeccakF1600_StateExtractBytes_Bytes>
	mov		r8, r3
    1b2e:	4698      	mov	r8, r3
	bl		__KeccakF1600_StateExtractLanes
    1b30:	f000 f866 	bl	1c00 <__KeccakF1600_StateExtractLanes>
	and		r3, r8, #7
    1b34:	f008 0307 	and.w	r3, r8, #7

00001b38 <KeccakF1600_StateExtractBytes_Bytes>:
KeccakF1600_StateExtractBytes_Bytes:
	cbz		r3, KeccakF1600_StateExtractBytes_Exit
    1b38:	b113      	cbz	r3, 1b40 <KeccakF1600_StateExtractBytes_Exit>
	movs	r2, #0
    1b3a:	2200      	movs	r2, #0
	bl		__KeccakF1600_StateExtractBytesInLane
    1b3c:	f000 f8e0 	bl	1d00 <__KeccakF1600_StateExtractBytesInLane>

00001b40 <KeccakF1600_StateExtractBytes_Exit>:
KeccakF1600_StateExtractBytes_Exit:
	pop		{r4 - r8, pc}
    1b40:	e8bd 81f0 	ldmia.w	sp!, {r4, r5, r6, r7, r8, pc}

00001b44 <KeccakF1600_StateExtractBytes_Exit1>:
KeccakF1600_StateExtractBytes_Exit1:
	bx		lr
    1b44:	4770      	bx	lr
    1b46:	bf00      	nop
    1b48:	f3af 8000 	nop.w
    1b4c:	f3af 8000 	nop.w
    1b50:	f3af 8000 	nop.w
    1b54:	f3af 8000 	nop.w
    1b58:	f3af 8000 	nop.w
    1b5c:	f3af 8000 	nop.w
    1b60:	f3af 8000 	nop.w
    1b64:	f3af 8000 	nop.w
    1b68:	f3af 8000 	nop.w
    1b6c:	f3af 8000 	nop.w
    1b70:	f3af 8000 	nop.w
    1b74:	f3af 8000 	nop.w
    1b78:	f3af 8000 	nop.w
    1b7c:	f3af 8000 	nop.w
	...

00001c00 <__KeccakF1600_StateExtractLanes>:
@ Changed: r2-r5
@
.align 8
__KeccakF1600_StateExtractLanes:
__KeccakF1600_StateExtractLanes_LoopAligned:
	ldrd	r4, r5, [r0], #8
    1c00:	e8f0 4502 	ldrd	r4, r5, [r0], #8
	fromBitInterleaving	r4, r5, r3
    1c04:	0023      	movs	r3, r4
    1c06:	f365 441f 	bfi	r4, r5, #16, #16
    1c0a:	f36f 050f 	bfc	r5, #0, #16
    1c0e:	ea45 4513 	orr.w	r5, r5, r3, lsr #16
    1c12:	ea84 2314 	eor.w	r3, r4, r4, lsr #8
    1c16:	f403 437f 	and.w	r3, r3, #65280	@ 0xff00
    1c1a:	405c      	eors	r4, r3
    1c1c:	ea84 2403 	eor.w	r4, r4, r3, lsl #8
    1c20:	ea84 1314 	eor.w	r3, r4, r4, lsr #4
    1c24:	f003 13f0 	and.w	r3, r3, #15728880	@ 0xf000f0
    1c28:	405c      	eors	r4, r3
    1c2a:	ea84 1403 	eor.w	r4, r4, r3, lsl #4
    1c2e:	ea84 0394 	eor.w	r3, r4, r4, lsr #2
    1c32:	f003 330c 	and.w	r3, r3, #202116108	@ 0xc0c0c0c
    1c36:	405c      	eors	r4, r3
    1c38:	ea84 0483 	eor.w	r4, r4, r3, lsl #2
    1c3c:	ea84 0354 	eor.w	r3, r4, r4, lsr #1
    1c40:	f003 3322 	and.w	r3, r3, #572662306	@ 0x22222222
    1c44:	405c      	eors	r4, r3
    1c46:	ea84 0443 	eor.w	r4, r4, r3, lsl #1
    1c4a:	ea85 2315 	eor.w	r3, r5, r5, lsr #8
    1c4e:	f403 437f 	and.w	r3, r3, #65280	@ 0xff00
    1c52:	405d      	eors	r5, r3
    1c54:	ea85 2503 	eor.w	r5, r5, r3, lsl #8
    1c58:	ea85 1315 	eor.w	r3, r5, r5, lsr #4
    1c5c:	f003 13f0 	and.w	r3, r3, #15728880	@ 0xf000f0
    1c60:	405d      	eors	r5, r3
    1c62:	ea85 1503 	eor.w	r5, r5, r3, lsl #4
    1c66:	ea85 0395 	eor.w	r3, r5, r5, lsr #2
    1c6a:	f003 330c 	and.w	r3, r3, #202116108	@ 0xc0c0c0c
    1c6e:	405d      	eors	r5, r3
    1c70:	ea85 0583 	eor.w	r5, r5, r3, lsl #2
    1c74:	ea85 0355 	eor.w	r3, r5, r5, lsr #1
    1c78:	f003 3322 	and.w	r3, r3, #572662306	@ 0x22222222
    1c7c:	405d      	eors	r5, r3
    1c7e:	ea85 0543 	eor.w	r5, r5, r3, lsl #1
	str		r4, [r1], #4
    1c82:	f841 4b04 	str.w	r4, [r1], #4
	subs	r2, r2, #1
    1c86:	3a01      	subs	r2, #1
	str		r5, [r1], #4
    1c88:	f841 5b04 	str.w	r5, [r1], #4
	bne		__KeccakF1600_StateExtractLanes_LoopAligned
    1c8c:	d1b8      	bne.n	1c00 <__KeccakF1600_StateExtractLanes>
	bx		lr
    1c8e:	4770      	bx	lr
    1c90:	f3af 8000 	nop.w
    1c94:	f3af 8000 	nop.w
    1c98:	f3af 8000 	nop.w
    1c9c:	f3af 8000 	nop.w
    1ca0:	f3af 8000 	nop.w
    1ca4:	f3af 8000 	nop.w
    1ca8:	f3af 8000 	nop.w
    1cac:	f3af 8000 	nop.w
    1cb0:	f3af 8000 	nop.w
    1cb4:	f3af 8000 	nop.w
    1cb8:	f3af 8000 	nop.w
    1cbc:	f3af 8000 	nop.w
	...

00001d00 <__KeccakF1600_StateExtractBytesInLane>:
@
@  Changed: r2-r6
@
.align 8
__KeccakF1600_StateExtractBytesInLane:
	ldrd	r4, r5, [r0], #8
    1d00:	e8f0 4502 	ldrd	r4, r5, [r0], #8
	fromBitInterleaving	r4, r5, r6
    1d04:	0026      	movs	r6, r4
    1d06:	f365 441f 	bfi	r4, r5, #16, #16
    1d0a:	f36f 050f 	bfc	r5, #0, #16
    1d0e:	ea45 4516 	orr.w	r5, r5, r6, lsr #16
    1d12:	ea84 2614 	eor.w	r6, r4, r4, lsr #8
    1d16:	f406 467f 	and.w	r6, r6, #65280	@ 0xff00
    1d1a:	4074      	eors	r4, r6
    1d1c:	ea84 2406 	eor.w	r4, r4, r6, lsl #8
    1d20:	ea84 1614 	eor.w	r6, r4, r4, lsr #4
    1d24:	f006 16f0 	and.w	r6, r6, #15728880	@ 0xf000f0
    1d28:	4074      	eors	r4, r6
    1d2a:	ea84 1406 	eor.w	r4, r4, r6, lsl #4
    1d2e:	ea84 0694 	eor.w	r6, r4, r4, lsr #2
    1d32:	f006 360c 	and.w	r6, r6, #202116108	@ 0xc0c0c0c
    1d36:	4074      	eors	r4, r6
    1d38:	ea84 0486 	eor.w	r4, r4, r6, lsl #2
    1d3c:	ea84 0654 	eor.w	r6, r4, r4, lsr #1
    1d40:	f006 3622 	and.w	r6, r6, #572662306	@ 0x22222222
    1d44:	4074      	eors	r4, r6
    1d46:	ea84 0446 	eor.w	r4, r4, r6, lsl #1
    1d4a:	ea85 2615 	eor.w	r6, r5, r5, lsr #8
    1d4e:	f406 467f 	and.w	r6, r6, #65280	@ 0xff00
    1d52:	4075      	eors	r5, r6
    1d54:	ea85 2506 	eor.w	r5, r5, r6, lsl #8
    1d58:	ea85 1615 	eor.w	r6, r5, r5, lsr #4
    1d5c:	f006 16f0 	and.w	r6, r6, #15728880	@ 0xf000f0
    1d60:	4075      	eors	r5, r6
    1d62:	ea85 1506 	eor.w	r5, r5, r6, lsl #4
    1d66:	ea85 0695 	eor.w	r6, r5, r5, lsr #2
    1d6a:	f006 360c 	and.w	r6, r6, #202116108	@ 0xc0c0c0c
    1d6e:	4075      	eors	r5, r6
    1d70:	ea85 0586 	eor.w	r5, r5, r6, lsl #2
    1d74:	ea85 0655 	eor.w	r6, r5, r5, lsr #1
    1d78:	f006 3622 	and.w	r6, r6, #572662306	@ 0x22222222
    1d7c:	4075      	eors	r5, r6
    1d7e:	ea85 0546 	eor.w	r5, r5, r6, lsl #1
	push	{r4, r5}
    1d82:	b430      	push	{r4, r5}
	add		r2, sp, r2
    1d84:	446a      	add	r2, sp

00001d86 <__KeccakF1600_StateExtractBytesInLane_Loop>:
__KeccakF1600_StateExtractBytesInLane_Loop:
	ldrb	r4, [r2], #1
    1d86:	f812 4b01 	ldrb.w	r4, [r2], #1
	subs	r3, r3, #1
    1d8a:	3b01      	subs	r3, #1
	strb	r4, [r1], #1
    1d8c:	f801 4b01 	strb.w	r4, [r1], #1
	bne		__KeccakF1600_StateExtractBytesInLane_Loop
    1d90:	d1f9      	bne.n	1d86 <__KeccakF1600_StateExtractBytesInLane_Loop>
	add		sp, #8
    1d92:	b002      	add	sp, #8
	bx		lr
    1d94:	4770      	bx	lr
    1d96:	bf00      	nop
    1d98:	f3af 8000 	nop.w
    1d9c:	f3af 8000 	nop.w
    1da0:	f3af 8000 	nop.w
    1da4:	f3af 8000 	nop.w
    1da8:	f3af 8000 	nop.w
    1dac:	f3af 8000 	nop.w
    1db0:	f3af 8000 	nop.w
    1db4:	f3af 8000 	nop.w
    1db8:	f3af 8000 	nop.w
    1dbc:	f3af 8000 	nop.w
	...

00001e00 <KeccakF1600_StatePermute_RoundConstantsWithTerminator>:
    1e00:	00000001 	.word	0x00000001
	...
    1e0c:	00000089 	.word	0x00000089
    1e10:	00000000 	.word	0x00000000
    1e14:	8000008b 	.word	0x8000008b
    1e18:	00000000 	.word	0x00000000
    1e1c:	80008080 	.word	0x80008080
    1e20:	00000001 	.word	0x00000001
    1e24:	0000008b 	.word	0x0000008b
    1e28:	00000001 	.word	0x00000001
    1e2c:	00008000 	.word	0x00008000
    1e30:	00000001 	.word	0x00000001
    1e34:	80008088 	.word	0x80008088
    1e38:	00000001 	.word	0x00000001
    1e3c:	80000082 	.word	0x80000082
    1e40:	00000000 	.word	0x00000000
    1e44:	0000000b 	.word	0x0000000b
    1e48:	00000000 	.word	0x00000000
    1e4c:	0000000a 	.word	0x0000000a
    1e50:	00000001 	.word	0x00000001
    1e54:	00008082 	.word	0x00008082
    1e58:	00000000 	.word	0x00000000
    1e5c:	00008003 	.word	0x00008003
    1e60:	00000001 	.word	0x00000001
    1e64:	0000808b 	.word	0x0000808b
    1e68:	00000001 	.word	0x00000001
    1e6c:	8000000b 	.word	0x8000000b
    1e70:	00000001 	.word	0x00000001
    1e74:	8000008a 	.word	0x8000008a
    1e78:	00000001 	.word	0x00000001
    1e7c:	80000081 	.word	0x80000081
    1e80:	00000000 	.word	0x00000000
    1e84:	80000081 	.word	0x80000081
    1e88:	00000000 	.word	0x00000000
    1e8c:	80000008 	.word	0x80000008
    1e90:	00000000 	.word	0x00000000
    1e94:	00000083 	.word	0x00000083
    1e98:	00000000 	.word	0x00000000
    1e9c:	80008003 	.word	0x80008003
    1ea0:	00000001 	.word	0x00000001
    1ea4:	80008088 	.word	0x80008088
    1ea8:	00000000 	.word	0x00000000
    1eac:	80000088 	.word	0x80000088
    1eb0:	00000001 	.word	0x00000001
    1eb4:	00008000 	.word	0x00008000
    1eb8:	00000000 	.word	0x00000000
    1ebc:	80008082 	.word	0x80008082
    1ec0:	000000ff 	.word	0x000000ff
    1ec4:	f3af 8000 	nop.w
    1ec8:	f3af 8000 	nop.w
    1ecc:	f3af 8000 	nop.w
    1ed0:	f3af 8000 	nop.w
    1ed4:	f3af 8000 	nop.w
    1ed8:	f3af 8000 	nop.w
    1edc:	f3af 8000 	nop.w
    1ee0:	f3af 8000 	nop.w
    1ee4:	f3af 8000 	nop.w
    1ee8:	f3af 8000 	nop.w
    1eec:	f3af 8000 	nop.w
    1ef0:	f3af 8000 	nop.w
    1ef4:	f3af 8000 	nop.w
    1ef8:	f3af 8000 	nop.w
    1efc:	f3af 8000 	nop.w

00001f00 <KeccakF1600_StatePermute>:
@ void KeccakF1600_StatePermute( void *state )
@
.align 8
.global   KeccakF1600_StatePermute
KeccakF1600_StatePermute:
	adr		r1, KeccakF1600_StatePermute_RoundConstantsWithTerminator
    1f00:	f2af 1104 	subw	r1, pc, #260	@ 0x104
	push	{ r4 - r12, lr }
    1f04:	e92d 5ff0 	stmdb	sp!, {r4, r5, r6, r7, r8, r9, sl, fp, ip, lr}
	sub		sp, #mSize
    1f08:	b086      	sub	sp, #24
	str		r1, [sp, #mRC]
    1f0a:	9105      	str	r1, [sp, #20]

00001f0c <KeccakF1600_StatePermute_RoundLoop>:
KeccakF1600_StatePermute_RoundLoop:
	KeccakRound0
    1f0c:	f8d0 3020 	ldr.w	r3, [r0, #32]
    1f10:	f8d0 1048 	ldr.w	r1, [r0, #72]	@ 0x48
    1f14:	f8d0 5070 	ldr.w	r5, [r0, #112]	@ 0x70
    1f18:	f8d0 b098 	ldr.w	fp, [r0, #152]	@ 0x98
    1f1c:	f8d0 c0c0 	ldr.w	ip, [r0, #192]	@ 0xc0
    1f20:	ea83 0301 	eor.w	r3, r3, r1
    1f24:	ea83 0305 	eor.w	r3, r3, r5
    1f28:	ea83 030b 	eor.w	r3, r3, fp
    1f2c:	ea83 030c 	eor.w	r3, r3, ip
    1f30:	f8d0 700c 	ldr.w	r7, [r0, #12]
    1f34:	f8d0 1034 	ldr.w	r1, [r0, #52]	@ 0x34
    1f38:	f8d0 505c 	ldr.w	r5, [r0, #92]	@ 0x5c
    1f3c:	f8d0 b084 	ldr.w	fp, [r0, #132]	@ 0x84
    1f40:	f8d0 c0ac 	ldr.w	ip, [r0, #172]	@ 0xac
    1f44:	ea87 0701 	eor.w	r7, r7, r1
    1f48:	ea87 0705 	eor.w	r7, r7, r5
    1f4c:	ea87 070b 	eor.w	r7, r7, fp
    1f50:	ea87 070c 	eor.w	r7, r7, ip
    1f54:	ea83 76f7 	eor.w	r6, r3, r7, ror #31
    1f58:	f8d0 4014 	ldr.w	r4, [r0, #20]
    1f5c:	f8d0 103c 	ldr.w	r1, [r0, #60]	@ 0x3c
    1f60:	f8d0 5064 	ldr.w	r5, [r0, #100]	@ 0x64
    1f64:	f8d0 b08c 	ldr.w	fp, [r0, #140]	@ 0x8c
    1f68:	f8d0 c0b4 	ldr.w	ip, [r0, #180]	@ 0xb4
    1f6c:	f8cd 6000 	str.w	r6, [sp]
    1f70:	ea84 0401 	eor.w	r4, r4, r1
    1f74:	ea84 0405 	eor.w	r4, r4, r5
    1f78:	ea84 040b 	eor.w	r4, r4, fp
    1f7c:	ea84 040c 	eor.w	r4, r4, ip
    1f80:	ea83 0604 	eor.w	r6, r3, r4
    1f84:	f8d0 3018 	ldr.w	r3, [r0, #24]
    1f88:	f8d0 1040 	ldr.w	r1, [r0, #64]	@ 0x40
    1f8c:	f8d0 5068 	ldr.w	r5, [r0, #104]	@ 0x68
    1f90:	f8d0 b090 	ldr.w	fp, [r0, #144]	@ 0x90
    1f94:	f8d0 c0b8 	ldr.w	ip, [r0, #184]	@ 0xb8
    1f98:	f8cd 600c 	str.w	r6, [sp, #12]
    1f9c:	ea83 0301 	eor.w	r3, r3, r1
    1fa0:	ea83 0305 	eor.w	r3, r3, r5
    1fa4:	ea83 030b 	eor.w	r3, r3, fp
    1fa8:	ea83 030c 	eor.w	r3, r3, ip
    1fac:	ea87 0203 	eor.w	r2, r7, r3
    1fb0:	f8d0 7000 	ldr.w	r7, [r0]
    1fb4:	f8d0 1028 	ldr.w	r1, [r0, #40]	@ 0x28
    1fb8:	f8d0 5050 	ldr.w	r5, [r0, #80]	@ 0x50
    1fbc:	f8d0 b078 	ldr.w	fp, [r0, #120]	@ 0x78
    1fc0:	f8d0 c0a0 	ldr.w	ip, [r0, #160]	@ 0xa0
    1fc4:	ea87 0701 	eor.w	r7, r7, r1
    1fc8:	ea87 0705 	eor.w	r7, r7, r5
    1fcc:	ea87 070b 	eor.w	r7, r7, fp
    1fd0:	ea87 070c 	eor.w	r7, r7, ip
    1fd4:	ea87 7af4 	eor.w	sl, r7, r4, ror #31
    1fd8:	f8d0 401c 	ldr.w	r4, [r0, #28]
    1fdc:	f8d0 1044 	ldr.w	r1, [r0, #68]	@ 0x44
    1fe0:	f8d0 506c 	ldr.w	r5, [r0, #108]	@ 0x6c
    1fe4:	f8d0 b094 	ldr.w	fp, [r0, #148]	@ 0x94
    1fe8:	f8d0 c0bc 	ldr.w	ip, [r0, #188]	@ 0xbc
    1fec:	ea84 0401 	eor.w	r4, r4, r1
    1ff0:	ea84 0405 	eor.w	r4, r4, r5
    1ff4:	ea84 040b 	eor.w	r4, r4, fp
    1ff8:	ea84 040c 	eor.w	r4, r4, ip
    1ffc:	ea84 0e07 	eor.w	lr, r4, r7
    2000:	f8d0 7008 	ldr.w	r7, [r0, #8]
    2004:	f8d0 1030 	ldr.w	r1, [r0, #48]	@ 0x30
    2008:	f8d0 5058 	ldr.w	r5, [r0, #88]	@ 0x58
    200c:	f8d0 b080 	ldr.w	fp, [r0, #128]	@ 0x80
    2010:	f8d0 c0a8 	ldr.w	ip, [r0, #168]	@ 0xa8
    2014:	ea87 0701 	eor.w	r7, r7, r1
    2018:	ea87 0705 	eor.w	r7, r7, r5
    201c:	ea87 070b 	eor.w	r7, r7, fp
    2020:	ea87 070c 	eor.w	r7, r7, ip
    2024:	ea87 76f4 	eor.w	r6, r7, r4, ror #31
    2028:	f8d0 4024 	ldr.w	r4, [r0, #36]	@ 0x24
    202c:	f8d0 104c 	ldr.w	r1, [r0, #76]	@ 0x4c
    2030:	f8d0 5074 	ldr.w	r5, [r0, #116]	@ 0x74
    2034:	f8d0 b09c 	ldr.w	fp, [r0, #156]	@ 0x9c
    2038:	f8d0 c0c4 	ldr.w	ip, [r0, #196]	@ 0xc4
    203c:	f8cd 6010 	str.w	r6, [sp, #16]
    2040:	ea84 0401 	eor.w	r4, r4, r1
    2044:	ea84 0405 	eor.w	r4, r4, r5
    2048:	ea84 040b 	eor.w	r4, r4, fp
    204c:	ea84 040c 	eor.w	r4, r4, ip
    2050:	ea84 0807 	eor.w	r8, r4, r7
    2054:	f8d0 7010 	ldr.w	r7, [r0, #16]
    2058:	f8d0 1038 	ldr.w	r1, [r0, #56]	@ 0x38
    205c:	f8d0 5060 	ldr.w	r5, [r0, #96]	@ 0x60
    2060:	f8d0 b088 	ldr.w	fp, [r0, #136]	@ 0x88
    2064:	f8d0 c0b0 	ldr.w	ip, [r0, #176]	@ 0xb0
    2068:	f8cd 8004 	str.w	r8, [sp, #4]
    206c:	ea87 0701 	eor.w	r7, r7, r1
    2070:	ea87 0705 	eor.w	r7, r7, r5
    2074:	ea87 070b 	eor.w	r7, r7, fp
    2078:	ea87 070c 	eor.w	r7, r7, ip
    207c:	ea87 79f4 	eor.w	r9, r7, r4, ror #31
    2080:	f8d0 4004 	ldr.w	r4, [r0, #4]
    2084:	f8d0 102c 	ldr.w	r1, [r0, #44]	@ 0x2c
    2088:	f8d0 5054 	ldr.w	r5, [r0, #84]	@ 0x54
    208c:	f8d0 b07c 	ldr.w	fp, [r0, #124]	@ 0x7c
    2090:	f8d0 c0a4 	ldr.w	ip, [r0, #164]	@ 0xa4
    2094:	f8cd 9008 	str.w	r9, [sp, #8]
    2098:	ea84 0401 	eor.w	r4, r4, r1
    209c:	ea84 0405 	eor.w	r4, r4, r5
    20a0:	ea84 040b 	eor.w	r4, r4, fp
    20a4:	ea84 040c 	eor.w	r4, r4, ip
    20a8:	ea84 0b07 	eor.w	fp, r4, r7
    20ac:	ea83 7cf4 	eor.w	ip, r3, r4, ror #31
    20b0:	f8d0 3018 	ldr.w	r3, [r0, #24]
    20b4:	f8d0 4048 	ldr.w	r4, [r0, #72]	@ 0x48
    20b8:	f8d0 5054 	ldr.w	r5, [r0, #84]	@ 0x54
    20bc:	f8d0 6084 	ldr.w	r6, [r0, #132]	@ 0x84
    20c0:	f8d0 70b4 	ldr.w	r7, [r0, #180]	@ 0xb4
    20c4:	f8c0 1054 	str.w	r1, [r0, #84]	@ 0x54
    20c8:	ea89 0303 	eor.w	r3, r9, r3
    20cc:	ea8c 0404 	eor.w	r4, ip, r4
    20d0:	ea88 0505 	eor.w	r5, r8, r5
    20d4:	ea8b 0606 	eor.w	r6, fp, r6
    20d8:	ea82 0707 	eor.w	r7, r2, r7
    20dc:	ea25 6134 	bic.w	r1, r5, r4, ror #24
    20e0:	ea81 5133 	eor.w	r1, r1, r3, ror #20
    20e4:	f8c0 1054 	str.w	r1, [r0, #84]	@ 0x54
    20e8:	ea26 5175 	bic.w	r1, r6, r5, ror #21
    20ec:	ea81 3174 	eor.w	r1, r1, r4, ror #13
    20f0:	f8c0 1084 	str.w	r1, [r0, #132]	@ 0x84
    20f4:	ea27 2136 	bic.w	r1, r7, r6, ror #8
    20f8:	ea81 7175 	eor.w	r1, r1, r5, ror #29
    20fc:	f8c0 10b4 	str.w	r1, [r0, #180]	@ 0xb4
    2100:	ea23 31f7 	bic.w	r1, r3, r7, ror #15
    2104:	ea81 51f6 	eor.w	r1, r1, r6, ror #23
    2108:	f8c0 1018 	str.w	r1, [r0, #24]
    210c:	ea24 7133 	bic.w	r1, r4, r3, ror #28
    2110:	ea81 21f7 	eor.w	r1, r1, r7, ror #11
    2114:	f8d0 3008 	ldr.w	r3, [r0, #8]
    2118:	f8d0 403c 	ldr.w	r4, [r0, #60]	@ 0x3c
    211c:	f8d0 5068 	ldr.w	r5, [r0, #104]	@ 0x68
    2120:	f8d0 609c 	ldr.w	r6, [r0, #156]	@ 0x9c
    2124:	f8d0 70a4 	ldr.w	r7, [r0, #164]	@ 0xa4
    2128:	f8c0 1048 	str.w	r1, [r0, #72]	@ 0x48
    212c:	ea8a 0303 	eor.w	r3, sl, r3
    2130:	ea82 0404 	eor.w	r4, r2, r4
    2134:	ea89 0505 	eor.w	r5, r9, r5
    2138:	ea8e 0606 	eor.w	r6, lr, r6
    213c:	ea88 0707 	eor.w	r7, r8, r7
    2140:	ea25 2174 	bic.w	r1, r5, r4, ror #9
    2144:	ea81 3133 	eor.w	r1, r1, r3, ror #12
    2148:	f8c0 10a4 	str.w	r1, [r0, #164]	@ 0xa4
    214c:	ea26 6135 	bic.w	r1, r6, r5, ror #24
    2150:	ea81 0174 	eor.w	r1, r1, r4, ror #1
    2154:	f8c0 1008 	str.w	r1, [r0, #8]
    2158:	ea27 1176 	bic.w	r1, r7, r6, ror #5
    215c:	ea81 7175 	eor.w	r1, r1, r5, ror #29
    2160:	f8c0 103c 	str.w	r1, [r0, #60]	@ 0x3c
    2164:	ea23 51f7 	bic.w	r1, r3, r7, ror #23
    2168:	ea81 7136 	eor.w	r1, r1, r6, ror #28
    216c:	f8c0 1068 	str.w	r1, [r0, #104]	@ 0x68
    2170:	ea24 01f3 	bic.w	r1, r4, r3, ror #3
    2174:	ea81 61b7 	eor.w	r1, r1, r7, ror #26
    2178:	f8dd 8000 	ldr.w	r8, [sp]
    217c:	f8d0 3024 	ldr.w	r3, [r0, #36]	@ 0x24
    2180:	f8d0 4028 	ldr.w	r4, [r0, #40]	@ 0x28
    2184:	f8d0 5058 	ldr.w	r5, [r0, #88]	@ 0x58
    2188:	f8d0 608c 	ldr.w	r6, [r0, #140]	@ 0x8c
    218c:	f8d0 70b8 	ldr.w	r7, [r0, #184]	@ 0xb8
    2190:	f8c0 109c 	str.w	r1, [r0, #156]	@ 0x9c
    2194:	ea8e 0303 	eor.w	r3, lr, r3
    2198:	ea88 0404 	eor.w	r4, r8, r4
    219c:	ea8a 0505 	eor.w	r5, sl, r5
    21a0:	ea82 0606 	eor.w	r6, r2, r6
    21a4:	ea89 0707 	eor.w	r7, r9, r7
    21a8:	ea25 41f4 	bic.w	r1, r5, r4, ror #19
    21ac:	ea81 51f3 	eor.w	r1, r1, r3, ror #23
    21b0:	f8c0 1028 	str.w	r1, [r0, #40]	@ 0x28
    21b4:	ea26 01f5 	bic.w	r1, r6, r5, ror #3
    21b8:	ea81 51b4 	eor.w	r1, r1, r4, ror #22
    21bc:	f8c0 1058 	str.w	r1, [r0, #88]	@ 0x58
    21c0:	ea27 5136 	bic.w	r1, r7, r6, ror #20
    21c4:	ea81 51f5 	eor.w	r1, r1, r5, ror #23
    21c8:	f8c0 108c 	str.w	r1, [r0, #140]	@ 0x8c
    21cc:	ea23 41b7 	bic.w	r1, r3, r7, ror #18
    21d0:	ea81 11b6 	eor.w	r1, r1, r6, ror #6
    21d4:	f8c0 10b8 	str.w	r1, [r0, #184]	@ 0xb8
    21d8:	ea24 1133 	bic.w	r1, r4, r3, ror #4
    21dc:	ea81 51b7 	eor.w	r1, r1, r7, ror #22
    21e0:	f8d0 3014 	ldr.w	r3, [r0, #20]
    21e4:	f8d0 4040 	ldr.w	r4, [r0, #64]	@ 0x40
    21e8:	f8d0 5070 	ldr.w	r5, [r0, #112]	@ 0x70
    21ec:	f8d0 6078 	ldr.w	r6, [r0, #120]	@ 0x78
    21f0:	f8d0 70ac 	ldr.w	r7, [r0, #172]	@ 0xac
    21f4:	f8c0 1024 	str.w	r1, [r0, #36]	@ 0x24
    21f8:	ea82 0303 	eor.w	r3, r2, r3
    21fc:	ea89 0404 	eor.w	r4, r9, r4
    2200:	ea8c 0505 	eor.w	r5, ip, r5
    2204:	ea88 0606 	eor.w	r6, r8, r6
    2208:	ea8b 0707 	eor.w	r7, fp, r7
    220c:	ea25 6134 	bic.w	r1, r5, r4, ror #24
    2210:	ea81 5133 	eor.w	r1, r1, r3, ror #20
    2214:	f8c0 1078 	str.w	r1, [r0, #120]	@ 0x78
    2218:	ea26 0175 	bic.w	r1, r6, r5, ror #1
    221c:	ea81 6174 	eor.w	r1, r1, r4, ror #25
    2220:	f8c0 10ac 	str.w	r1, [r0, #172]	@ 0xac
    2224:	ea27 3176 	bic.w	r1, r7, r6, ror #13
    2228:	ea81 31b5 	eor.w	r1, r1, r5, ror #14
    222c:	f8c0 1014 	str.w	r1, [r0, #20]
    2230:	ea23 71b7 	bic.w	r1, r3, r7, ror #30
    2234:	ea81 21f6 	eor.w	r1, r1, r6, ror #11
    2238:	f8c0 1040 	str.w	r1, [r0, #64]	@ 0x40
    223c:	ea24 7133 	bic.w	r1, r4, r3, ror #28
    2240:	ea81 61b7 	eor.w	r1, r1, r7, ror #26
    2244:	f8dd 900c 	ldr.w	r9, [sp, #12]
    2248:	f8d0 3000 	ldr.w	r3, [r0]
    224c:	6b04      	ldr	r4, [r0, #48]	@ 0x30
    224e:	6e45      	ldr	r5, [r0, #100]	@ 0x64
    2250:	f8d0 6094 	ldr.w	r6, [r0, #148]	@ 0x94
    2254:	f8d0 70c0 	ldr.w	r7, [r0, #192]	@ 0xc0
    2258:	f8c0 1070 	str.w	r1, [r0, #112]	@ 0x70
    225c:	ea88 0303 	eor.w	r3, r8, r3
    2260:	ea8a 0404 	eor.w	r4, sl, r4
    2264:	ea82 0505 	eor.w	r5, r2, r5
    2268:	ea89 0606 	eor.w	r6, r9, r6
    226c:	ea8c 0707 	eor.w	r7, ip, r7
    2270:	ea26 5175 	bic.w	r1, r6, r5, ror #21
    2274:	ea81 5174 	eor.w	r1, r1, r4, ror #21
    2278:	f8c0 1030 	str.w	r1, [r0, #48]	@ 0x30
    227c:	ea27 7136 	bic.w	r1, r7, r6, ror #28
    2280:	ea81 4175 	eor.w	r1, r1, r5, ror #17
    2284:	f8c0 1064 	str.w	r1, [r0, #100]	@ 0x64
    2288:	ea23 6177 	bic.w	r1, r3, r7, ror #25
    228c:	ea81 5176 	eor.w	r1, r1, r6, ror #21
    2290:	f8c0 1094 	str.w	r1, [r0, #148]	@ 0x94
    2294:	ea24 51b3 	bic.w	r1, r4, r3, ror #22
    2298:	ea81 31f7 	eor.w	r1, r1, r7, ror #15
    229c:	f8c0 10c0 	str.w	r1, [r0, #192]	@ 0xc0
    22a0:	ea25 0504 	bic.w	r5, r5, r4
    22a4:	9905      	ldr	r1, [sp, #20]
    22a6:	680c      	ldr	r4, [r1, #0]
    22a8:	ea83 23b5 	eor.w	r3, r3, r5, ror #10
    22ac:	ea84 0103 	eor.w	r1, r4, r3
    22b0:	f8dd 2010 	ldr.w	r2, [sp, #16]
    22b4:	f8d0 301c 	ldr.w	r3, [r0, #28]
    22b8:	f8d0 404c 	ldr.w	r4, [r0, #76]	@ 0x4c
    22bc:	f8d0 5050 	ldr.w	r5, [r0, #80]	@ 0x50
    22c0:	f8d0 6080 	ldr.w	r6, [r0, #128]	@ 0x80
    22c4:	f8d0 70b0 	ldr.w	r7, [r0, #176]	@ 0xb0
    22c8:	f8c0 1000 	str.w	r1, [r0]
    22cc:	ea89 0303 	eor.w	r3, r9, r3
    22d0:	ea8e 0404 	eor.w	r4, lr, r4
    22d4:	ea88 0505 	eor.w	r5, r8, r5
    22d8:	ea8a 0606 	eor.w	r6, sl, r6
    22dc:	ea82 0707 	eor.w	r7, r2, r7
    22e0:	ea25 51f4 	bic.w	r1, r5, r4, ror #23
    22e4:	ea81 41f3 	eor.w	r1, r1, r3, ror #19
    22e8:	f8c0 1050 	str.w	r1, [r0, #80]	@ 0x50
    22ec:	ea26 5175 	bic.w	r1, r6, r5, ror #21
    22f0:	ea81 3134 	eor.w	r1, r1, r4, ror #12
    22f4:	f8c0 1080 	str.w	r1, [r0, #128]	@ 0x80
    22f8:	ea27 2136 	bic.w	r1, r7, r6, ror #8
    22fc:	ea81 7175 	eor.w	r1, r1, r5, ror #29
    2300:	f8c0 10b0 	str.w	r1, [r0, #176]	@ 0xb0
    2304:	ea23 4137 	bic.w	r1, r3, r7, ror #16
    2308:	ea81 6136 	eor.w	r1, r1, r6, ror #24
    230c:	f8c0 101c 	str.w	r1, [r0, #28]
    2310:	ea24 7133 	bic.w	r1, r4, r3, ror #28
    2314:	ea81 3137 	eor.w	r1, r1, r7, ror #12
    2318:	f8d0 300c 	ldr.w	r3, [r0, #12]
    231c:	f8d0 4038 	ldr.w	r4, [r0, #56]	@ 0x38
    2320:	f8d0 506c 	ldr.w	r5, [r0, #108]	@ 0x6c
    2324:	f8d0 6098 	ldr.w	r6, [r0, #152]	@ 0x98
    2328:	f8d0 70a0 	ldr.w	r7, [r0, #160]	@ 0xa0
    232c:	f8c0 104c 	str.w	r1, [r0, #76]	@ 0x4c
    2330:	ea8b 0303 	eor.w	r3, fp, r3
    2334:	ea82 0404 	eor.w	r4, r2, r4
    2338:	ea89 0505 	eor.w	r5, r9, r5
    233c:	ea8c 0606 	eor.w	r6, ip, r6
    2340:	ea88 0707 	eor.w	r7, r8, r7
    2344:	ea25 21b4 	bic.w	r1, r5, r4, ror #10
    2348:	ea81 3133 	eor.w	r1, r1, r3, ror #12
    234c:	f8c0 10a0 	str.w	r1, [r0, #160]	@ 0xa0
    2350:	ea26 51f5 	bic.w	r1, r6, r5, ror #23
    2354:	ea81 0174 	eor.w	r1, r1, r4, ror #1
    2358:	f8c0 100c 	str.w	r1, [r0, #12]
    235c:	ea27 1176 	bic.w	r1, r7, r6, ror #5
    2360:	ea81 7135 	eor.w	r1, r1, r5, ror #28
    2364:	f8c0 1038 	str.w	r1, [r0, #56]	@ 0x38
    2368:	ea23 6137 	bic.w	r1, r3, r7, ror #24
    236c:	ea81 7176 	eor.w	r1, r1, r6, ror #29
    2370:	f8c0 106c 	str.w	r1, [r0, #108]	@ 0x6c
    2374:	ea24 01b3 	bic.w	r1, r4, r3, ror #2
    2378:	ea81 61b7 	eor.w	r1, r1, r7, ror #26
    237c:	f8dd 8004 	ldr.w	r8, [sp, #4]
    2380:	f8d0 3020 	ldr.w	r3, [r0, #32]
    2384:	f8d0 402c 	ldr.w	r4, [r0, #44]	@ 0x2c
    2388:	f8d0 505c 	ldr.w	r5, [r0, #92]	@ 0x5c
    238c:	f8d0 6088 	ldr.w	r6, [r0, #136]	@ 0x88
    2390:	f8d0 70bc 	ldr.w	r7, [r0, #188]	@ 0xbc
    2394:	f8c0 1098 	str.w	r1, [r0, #152]	@ 0x98
    2398:	ea8c 0303 	eor.w	r3, ip, r3
    239c:	ea88 0404 	eor.w	r4, r8, r4
    23a0:	ea8b 0505 	eor.w	r5, fp, r5
    23a4:	ea82 0606 	eor.w	r6, r2, r6
    23a8:	ea89 0707 	eor.w	r7, r9, r7
    23ac:	ea25 41f4 	bic.w	r1, r5, r4, ror #19
    23b0:	ea81 6133 	eor.w	r1, r1, r3, ror #24
    23b4:	f8c0 102c 	str.w	r1, [r0, #44]	@ 0x2c
    23b8:	ea26 01b5 	bic.w	r1, r6, r5, ror #2
    23bc:	ea81 5174 	eor.w	r1, r1, r4, ror #21
    23c0:	f8c0 105c 	str.w	r1, [r0, #92]	@ 0x5c
    23c4:	ea27 5176 	bic.w	r1, r7, r6, ror #21
    23c8:	ea81 51f5 	eor.w	r1, r1, r5, ror #23
    23cc:	f8c0 1088 	str.w	r1, [r0, #136]	@ 0x88
    23d0:	ea23 4177 	bic.w	r1, r3, r7, ror #17
    23d4:	ea81 11b6 	eor.w	r1, r1, r6, ror #6
    23d8:	f8c0 10bc 	str.w	r1, [r0, #188]	@ 0xbc
    23dc:	ea24 1173 	bic.w	r1, r4, r3, ror #5
    23e0:	ea81 51b7 	eor.w	r1, r1, r7, ror #22
    23e4:	f8d0 3010 	ldr.w	r3, [r0, #16]
    23e8:	f8d0 4044 	ldr.w	r4, [r0, #68]	@ 0x44
    23ec:	f8d0 5074 	ldr.w	r5, [r0, #116]	@ 0x74
    23f0:	f8d0 607c 	ldr.w	r6, [r0, #124]	@ 0x7c
    23f4:	f8d0 70a8 	ldr.w	r7, [r0, #168]	@ 0xa8
    23f8:	f8c0 1020 	str.w	r1, [r0, #32]
    23fc:	ea82 0303 	eor.w	r3, r2, r3
    2400:	ea89 0404 	eor.w	r4, r9, r4
    2404:	ea8e 0505 	eor.w	r5, lr, r5
    2408:	ea88 0606 	eor.w	r6, r8, r6
    240c:	ea8a 0707 	eor.w	r7, sl, r7
    2410:	ea25 6134 	bic.w	r1, r5, r4, ror #24
    2414:	ea81 5173 	eor.w	r1, r1, r3, ror #21
    2418:	f8c0 107c 	str.w	r1, [r0, #124]	@ 0x7c
    241c:	ea26 0175 	bic.w	r1, r6, r5, ror #1
    2420:	ea81 6174 	eor.w	r1, r1, r4, ror #25
    2424:	f8c0 10a8 	str.w	r1, [r0, #168]	@ 0xa8
    2428:	ea27 3136 	bic.w	r1, r7, r6, ror #12
    242c:	ea81 3175 	eor.w	r1, r1, r5, ror #13
    2430:	f8c0 1010 	str.w	r1, [r0, #16]
    2434:	ea23 71b7 	bic.w	r1, r3, r7, ror #30
    2438:	ea81 21b6 	eor.w	r1, r1, r6, ror #10
    243c:	f8c0 1044 	str.w	r1, [r0, #68]	@ 0x44
    2440:	ea24 7173 	bic.w	r1, r4, r3, ror #29
    2444:	ea81 61f7 	eor.w	r1, r1, r7, ror #27
    2448:	f8dd 9008 	ldr.w	r9, [sp, #8]
    244c:	f8d0 3004 	ldr.w	r3, [r0, #4]
    2450:	6b44      	ldr	r4, [r0, #52]	@ 0x34
    2452:	6e05      	ldr	r5, [r0, #96]	@ 0x60
    2454:	f8d0 6090 	ldr.w	r6, [r0, #144]	@ 0x90
    2458:	f8d0 70c4 	ldr.w	r7, [r0, #196]	@ 0xc4
    245c:	f8c0 1074 	str.w	r1, [r0, #116]	@ 0x74
    2460:	ea88 0303 	eor.w	r3, r8, r3
    2464:	ea8b 0404 	eor.w	r4, fp, r4
    2468:	ea82 0505 	eor.w	r5, r2, r5
    246c:	ea89 0606 	eor.w	r6, r9, r6
    2470:	ea8e 0707 	eor.w	r7, lr, r7
    2474:	ea26 5175 	bic.w	r1, r6, r5, ror #21
    2478:	ea81 5134 	eor.w	r1, r1, r4, ror #20
    247c:	f8c0 1034 	str.w	r1, [r0, #52]	@ 0x34
    2480:	ea27 7176 	bic.w	r1, r7, r6, ror #29
    2484:	ea81 41b5 	eor.w	r1, r1, r5, ror #18
    2488:	f8c0 1060 	str.w	r1, [r0, #96]	@ 0x60
    248c:	ea23 6177 	bic.w	r1, r3, r7, ror #25
    2490:	ea81 51b6 	eor.w	r1, r1, r6, ror #22
    2494:	f8c0 1090 	str.w	r1, [r0, #144]	@ 0x90
    2498:	ea24 51b3 	bic.w	r1, r4, r3, ror #22
    249c:	ea81 31f7 	eor.w	r1, r1, r7, ror #15
    24a0:	f8c0 10c4 	str.w	r1, [r0, #196]	@ 0xc4
    24a4:	ea25 75f4 	bic.w	r5, r5, r4, ror #31
    24a8:	9905      	ldr	r1, [sp, #20]
    24aa:	684c      	ldr	r4, [r1, #4]
    24ac:	ea83 23f5 	eor.w	r3, r3, r5, ror #11
    24b0:	ea84 0e03 	eor.w	lr, r4, r3
	KeccakRound1
    24b4:	f8d0 30c0 	ldr.w	r3, [r0, #192]	@ 0xc0
    24b8:	f8d0 1048 	ldr.w	r1, [r0, #72]	@ 0x48
    24bc:	f8d0 5098 	ldr.w	r5, [r0, #152]	@ 0x98
    24c0:	f8d0 b024 	ldr.w	fp, [r0, #36]	@ 0x24
    24c4:	f8d0 c074 	ldr.w	ip, [r0, #116]	@ 0x74
    24c8:	f8c0 e004 	str.w	lr, [r0, #4]
    24cc:	ea83 3331 	eor.w	r3, r3, r1, ror #12
    24d0:	ea83 43f5 	eor.w	r3, r3, r5, ror #19
    24d4:	ea83 133b 	eor.w	r3, r3, fp, ror #4
    24d8:	ea83 63bc 	eor.w	r3, r3, ip, ror #26
    24dc:	f8d0 7034 	ldr.w	r7, [r0, #52]	@ 0x34
    24e0:	f8d0 1080 	ldr.w	r1, [r0, #128]	@ 0x80
    24e4:	f8d0 5008 	ldr.w	r5, [r0, #8]
    24e8:	f8d0 b05c 	ldr.w	fp, [r0, #92]	@ 0x5c
    24ec:	f8d0 c0ac 	ldr.w	ip, [r0, #172]	@ 0xac
    24f0:	ea87 5731 	eor.w	r7, r7, r1, ror #20
    24f4:	ea87 17b5 	eor.w	r7, r7, r5, ror #6
    24f8:	ea87 07fb 	eor.w	r7, r7, fp, ror #3
    24fc:	ea87 57bc 	eor.w	r7, r7, ip, ror #22
    2500:	ea4f 23b3 	mov.w	r3, r3, ror #10
    2504:	ea83 5677 	eor.w	r6, r3, r7, ror #21
    2508:	f8d0 4060 	ldr.w	r4, [r0, #96]	@ 0x60
    250c:	f8d0 10b0 	ldr.w	r1, [r0, #176]	@ 0xb0
    2510:	f8d0 503c 	ldr.w	r5, [r0, #60]	@ 0x3c
    2514:	f8d0 b088 	ldr.w	fp, [r0, #136]	@ 0x88
    2518:	f8d0 c014 	ldr.w	ip, [r0, #20]
    251c:	f8cd 6000 	str.w	r6, [sp]
    2520:	ea84 2471 	eor.w	r4, r4, r1, ror #9
    2524:	ea84 74b5 	eor.w	r4, r4, r5, ror #30
    2528:	ea84 24fb 	eor.w	r4, r4, fp, ror #11
    252c:	ea84 14bc 	eor.w	r4, r4, ip, ror #6
    2530:	ea83 6674 	eor.w	r6, r3, r4, ror #25
    2534:	f8d0 3094 	ldr.w	r3, [r0, #148]	@ 0x94
    2538:	f8d0 1018 	ldr.w	r1, [r0, #24]
    253c:	f8d0 506c 	ldr.w	r5, [r0, #108]	@ 0x6c
    2540:	f8d0 b0b8 	ldr.w	fp, [r0, #184]	@ 0xb8
    2544:	f8d0 c044 	ldr.w	ip, [r0, #68]	@ 0x44
    2548:	f8cd 600c 	str.w	r6, [sp, #12]
    254c:	ea83 43b1 	eor.w	r3, r3, r1, ror #18
    2550:	ea83 73f5 	eor.w	r3, r3, r5, ror #31
    2554:	ea83 43bb 	eor.w	r3, r3, fp, ror #18
    2558:	ea83 037c 	eor.w	r3, r3, ip, ror #1
    255c:	ea83 52b7 	eor.w	r2, r3, r7, ror #22
    2560:	f8d0 7000 	ldr.w	r7, [r0]
    2564:	f8d0 1054 	ldr.w	r1, [r0, #84]	@ 0x54
    2568:	f8d0 50a0 	ldr.w	r5, [r0, #160]	@ 0xa0
    256c:	f8d0 b028 	ldr.w	fp, [r0, #40]	@ 0x28
    2570:	f8d0 c07c 	ldr.w	ip, [r0, #124]	@ 0x7c
    2574:	ea87 77b1 	eor.w	r7, r7, r1, ror #30
    2578:	ea87 47f5 	eor.w	r7, r7, r5, ror #19
    257c:	ea87 67fb 	eor.w	r7, r7, fp, ror #27
    2580:	ea87 373c 	eor.w	r7, r7, ip, ror #12
    2584:	ea87 6a34 	eor.w	sl, r7, r4, ror #24
    2588:	f8d0 4090 	ldr.w	r4, [r0, #144]	@ 0x90
    258c:	f8d0 101c 	ldr.w	r1, [r0, #28]
    2590:	f8d0 5068 	ldr.w	r5, [r0, #104]	@ 0x68
    2594:	f8d0 b0bc 	ldr.w	fp, [r0, #188]	@ 0xbc
    2598:	f8d0 c040 	ldr.w	ip, [r0, #64]	@ 0x40
    259c:	ea84 44b1 	eor.w	r4, r4, r1, ror #18
    25a0:	ea84 0405 	eor.w	r4, r4, r5
    25a4:	ea84 44fb 	eor.w	r4, r4, fp, ror #19
    25a8:	ea84 047c 	eor.w	r4, r4, ip, ror #1
    25ac:	ea84 0e07 	eor.w	lr, r4, r7
    25b0:	f8d0 7030 	ldr.w	r7, [r0, #48]	@ 0x30
    25b4:	f8d0 1084 	ldr.w	r1, [r0, #132]	@ 0x84
    25b8:	f8d0 500c 	ldr.w	r5, [r0, #12]
    25bc:	f8d0 b058 	ldr.w	fp, [r0, #88]	@ 0x58
    25c0:	f8d0 c0a8 	ldr.w	ip, [r0, #168]	@ 0xa8
    25c4:	ea87 5731 	eor.w	r7, r7, r1, ror #20
    25c8:	ea87 17f5 	eor.w	r7, r7, r5, ror #7
    25cc:	ea87 07fb 	eor.w	r7, r7, fp, ror #3
    25d0:	ea87 57bc 	eor.w	r7, r7, ip, ror #22
    25d4:	ea4f 5777 	mov.w	r7, r7, ror #21
    25d8:	ea87 76f4 	eor.w	r6, r7, r4, ror #31
    25dc:	f8d0 40c4 	ldr.w	r4, [r0, #196]	@ 0xc4
    25e0:	f8d0 104c 	ldr.w	r1, [r0, #76]	@ 0x4c
    25e4:	f8d0 509c 	ldr.w	r5, [r0, #156]	@ 0x9c
    25e8:	f8d0 b020 	ldr.w	fp, [r0, #32]
    25ec:	f8d0 c070 	ldr.w	ip, [r0, #112]	@ 0x70
    25f0:	f8cd 6010 	str.w	r6, [sp, #16]
    25f4:	ea84 3431 	eor.w	r4, r4, r1, ror #12
    25f8:	ea84 44f5 	eor.w	r4, r4, r5, ror #19
    25fc:	ea84 143b 	eor.w	r4, r4, fp, ror #4
    2600:	ea84 64fc 	eor.w	r4, r4, ip, ror #27
    2604:	ea87 28b4 	eor.w	r8, r7, r4, ror #10
    2608:	f8d0 7064 	ldr.w	r7, [r0, #100]	@ 0x64
    260c:	f8d0 10b4 	ldr.w	r1, [r0, #180]	@ 0xb4
    2610:	f8d0 5038 	ldr.w	r5, [r0, #56]	@ 0x38
    2614:	f8d0 b08c 	ldr.w	fp, [r0, #140]	@ 0x8c
    2618:	f8d0 c010 	ldr.w	ip, [r0, #16]
    261c:	f8cd 8004 	str.w	r8, [sp, #4]
    2620:	ea87 2731 	eor.w	r7, r7, r1, ror #8
    2624:	ea87 77b5 	eor.w	r7, r7, r5, ror #30
    2628:	ea87 27fb 	eor.w	r7, r7, fp, ror #11
    262c:	ea87 17bc 	eor.w	r7, r7, ip, ror #6
    2630:	ea4f 6777 	mov.w	r7, r7, ror #25
    2634:	ea87 2974 	eor.w	r9, r7, r4, ror #9
    2638:	f8d0 4004 	ldr.w	r4, [r0, #4]
    263c:	f8d0 1050 	ldr.w	r1, [r0, #80]	@ 0x50
    2640:	f8d0 50a4 	ldr.w	r5, [r0, #164]	@ 0xa4
    2644:	f8d0 b02c 	ldr.w	fp, [r0, #44]	@ 0x2c
    2648:	f8d0 c078 	ldr.w	ip, [r0, #120]	@ 0x78
    264c:	f8cd 9008 	str.w	r9, [sp, #8]
    2650:	ea84 74f1 	eor.w	r4, r4, r1, ror #31
    2654:	ea84 5435 	eor.w	r4, r4, r5, ror #20
    2658:	ea84 64fb 	eor.w	r4, r4, fp, ror #27
    265c:	ea84 347c 	eor.w	r4, r4, ip, ror #13
    2660:	ea84 0b07 	eor.w	fp, r4, r7
    2664:	ea83 7cf4 	eor.w	ip, r3, r4, ror #31
    2668:	f8d0 3094 	ldr.w	r3, [r0, #148]	@ 0x94
    266c:	f8d0 4048 	ldr.w	r4, [r0, #72]	@ 0x48
    2670:	f8d0 50a4 	ldr.w	r5, [r0, #164]	@ 0xa4
    2674:	f8d0 605c 	ldr.w	r6, [r0, #92]	@ 0x5c
    2678:	f8d0 7014 	ldr.w	r7, [r0, #20]
    267c:	f8c0 10a4 	str.w	r1, [r0, #164]	@ 0xa4
    2680:	ea89 0303 	eor.w	r3, r9, r3
    2684:	ea8c 54b4 	eor.w	r4, ip, r4, ror #22
    2688:	ea88 5535 	eor.w	r5, r8, r5, ror #20
    268c:	ea8b 6676 	eor.w	r6, fp, r6, ror #25
    2690:	ea82 77f7 	eor.w	r7, r2, r7, ror #31
    2694:	ea25 6134 	bic.w	r1, r5, r4, ror #24
    2698:	ea81 5133 	eor.w	r1, r1, r3, ror #20
    269c:	f8c0 10a4 	str.w	r1, [r0, #164]	@ 0xa4
    26a0:	ea26 5175 	bic.w	r1, r6, r5, ror #21
    26a4:	ea81 3174 	eor.w	r1, r1, r4, ror #13
    26a8:	f8c0 105c 	str.w	r1, [r0, #92]	@ 0x5c
    26ac:	ea27 2136 	bic.w	r1, r7, r6, ror #8
    26b0:	ea81 7175 	eor.w	r1, r1, r5, ror #29
    26b4:	f8c0 1014 	str.w	r1, [r0, #20]
    26b8:	ea23 31f7 	bic.w	r1, r3, r7, ror #15
    26bc:	ea81 51f6 	eor.w	r1, r1, r6, ror #23
    26c0:	f8c0 1094 	str.w	r1, [r0, #148]	@ 0x94
    26c4:	ea24 7133 	bic.w	r1, r4, r3, ror #28
    26c8:	ea81 21f7 	eor.w	r1, r1, r7, ror #11
    26cc:	f8d0 3030 	ldr.w	r3, [r0, #48]	@ 0x30
    26d0:	f8d0 40b0 	ldr.w	r4, [r0, #176]	@ 0xb0
    26d4:	f8d0 506c 	ldr.w	r5, [r0, #108]	@ 0x6c
    26d8:	f8d0 6020 	ldr.w	r6, [r0, #32]
    26dc:	f8d0 7078 	ldr.w	r7, [r0, #120]	@ 0x78
    26e0:	f8c0 1048 	str.w	r1, [r0, #72]	@ 0x48
    26e4:	ea8a 5373 	eor.w	r3, sl, r3, ror #21
    26e8:	ea82 04b4 	eor.w	r4, r2, r4, ror #2
    26ec:	ea89 75f5 	eor.w	r5, r9, r5, ror #31
    26f0:	ea8e 36b6 	eor.w	r6, lr, r6, ror #14
    26f4:	ea88 3777 	eor.w	r7, r8, r7, ror #13
    26f8:	ea25 2174 	bic.w	r1, r5, r4, ror #9
    26fc:	ea81 3133 	eor.w	r1, r1, r3, ror #12
    2700:	f8c0 1078 	str.w	r1, [r0, #120]	@ 0x78
    2704:	ea26 6135 	bic.w	r1, r6, r5, ror #24
    2708:	ea81 0174 	eor.w	r1, r1, r4, ror #1
    270c:	f8c0 1030 	str.w	r1, [r0, #48]	@ 0x30
    2710:	ea27 1176 	bic.w	r1, r7, r6, ror #5
    2714:	ea81 7175 	eor.w	r1, r1, r5, ror #29
    2718:	f8c0 10b0 	str.w	r1, [r0, #176]	@ 0xb0
    271c:	ea23 51f7 	bic.w	r1, r3, r7, ror #23
    2720:	ea81 7136 	eor.w	r1, r1, r6, ror #28
    2724:	f8c0 106c 	str.w	r1, [r0, #108]	@ 0x6c
    2728:	ea24 01f3 	bic.w	r1, r4, r3, ror #3
    272c:	ea81 61b7 	eor.w	r1, r1, r7, ror #26
    2730:	f8dd 8000 	ldr.w	r8, [sp]
    2734:	f8d0 30c4 	ldr.w	r3, [r0, #196]	@ 0xc4
    2738:	f8d0 4054 	ldr.w	r4, [r0, #84]	@ 0x54
    273c:	f8d0 500c 	ldr.w	r5, [r0, #12]
    2740:	f8d0 6088 	ldr.w	r6, [r0, #136]	@ 0x88
    2744:	f8d0 7044 	ldr.w	r7, [r0, #68]	@ 0x44
    2748:	f8c0 1020 	str.w	r1, [r0, #32]
    274c:	ea8e 23b3 	eor.w	r3, lr, r3, ror #10
    2750:	ea88 74b4 	eor.w	r4, r8, r4, ror #30
    2754:	ea8a 7535 	eor.w	r5, sl, r5, ror #28
    2758:	ea82 1636 	eor.w	r6, r2, r6, ror #4
    275c:	ea89 0777 	eor.w	r7, r9, r7, ror #1
    2760:	ea25 41f4 	bic.w	r1, r5, r4, ror #19
    2764:	ea81 51f3 	eor.w	r1, r1, r3, ror #23
    2768:	f8c0 1054 	str.w	r1, [r0, #84]	@ 0x54
    276c:	ea26 01f5 	bic.w	r1, r6, r5, ror #3
    2770:	ea81 51b4 	eor.w	r1, r1, r4, ror #22
    2774:	f8c0 100c 	str.w	r1, [r0, #12]
    2778:	ea27 5136 	bic.w	r1, r7, r6, ror #20
    277c:	ea81 51f5 	eor.w	r1, r1, r5, ror #23
    2780:	f8c0 1088 	str.w	r1, [r0, #136]	@ 0x88
    2784:	ea23 41b7 	bic.w	r1, r3, r7, ror #18
    2788:	ea81 11b6 	eor.w	r1, r1, r6, ror #6
    278c:	f8c0 1044 	str.w	r1, [r0, #68]	@ 0x44
    2790:	ea24 1133 	bic.w	r1, r4, r3, ror #4
    2794:	ea81 51b7 	eor.w	r1, r1, r7, ror #22
    2798:	f8d0 3060 	ldr.w	r3, [r0, #96]	@ 0x60
    279c:	f8d0 4018 	ldr.w	r4, [r0, #24]
    27a0:	f8d0 5098 	ldr.w	r5, [r0, #152]	@ 0x98
    27a4:	f8d0 6028 	ldr.w	r6, [r0, #40]	@ 0x28
    27a8:	f8d0 70ac 	ldr.w	r7, [r0, #172]	@ 0xac
    27ac:	f8c0 10c4 	str.w	r1, [r0, #196]	@ 0xc4
    27b0:	ea82 6373 	eor.w	r3, r2, r3, ror #25
    27b4:	ea89 44b4 	eor.w	r4, r9, r4, ror #18
    27b8:	ea8c 7575 	eor.w	r5, ip, r5, ror #29
    27bc:	ea88 66f6 	eor.w	r6, r8, r6, ror #27
    27c0:	ea8b 3737 	eor.w	r7, fp, r7, ror #12
    27c4:	ea25 6134 	bic.w	r1, r5, r4, ror #24
    27c8:	ea81 5133 	eor.w	r1, r1, r3, ror #20
    27cc:	f8c0 1028 	str.w	r1, [r0, #40]	@ 0x28
    27d0:	ea26 0175 	bic.w	r1, r6, r5, ror #1
    27d4:	ea81 6174 	eor.w	r1, r1, r4, ror #25
    27d8:	f8c0 10ac 	str.w	r1, [r0, #172]	@ 0xac
    27dc:	ea27 3176 	bic.w	r1, r7, r6, ror #13
    27e0:	ea81 31b5 	eor.w	r1, r1, r5, ror #14
    27e4:	f8c0 1060 	str.w	r1, [r0, #96]	@ 0x60
    27e8:	ea23 71b7 	bic.w	r1, r3, r7, ror #30
    27ec:	ea81 21f6 	eor.w	r1, r1, r6, ror #11
    27f0:	f8c0 1018 	str.w	r1, [r0, #24]
    27f4:	ea24 7133 	bic.w	r1, r4, r3, ror #28
    27f8:	ea81 61b7 	eor.w	r1, r1, r7, ror #26
    27fc:	f8dd 900c 	ldr.w	r9, [sp, #12]
    2800:	f8d0 3000 	ldr.w	r3, [r0]
    2804:	f8d0 4084 	ldr.w	r4, [r0, #132]	@ 0x84
    2808:	6bc5      	ldr	r5, [r0, #60]	@ 0x3c
    280a:	f8d0 60bc 	ldr.w	r6, [r0, #188]	@ 0xbc
    280e:	6f47      	ldr	r7, [r0, #116]	@ 0x74
    2810:	f8c0 1098 	str.w	r1, [r0, #152]	@ 0x98
    2814:	ea88 0303 	eor.w	r3, r8, r3
    2818:	ea8a 2474 	eor.w	r4, sl, r4, ror #9
    281c:	ea82 55f5 	eor.w	r5, r2, r5, ror #23
    2820:	ea89 46f6 	eor.w	r6, r9, r6, ror #19
    2824:	ea8c 1737 	eor.w	r7, ip, r7, ror #4
    2828:	ea26 5175 	bic.w	r1, r6, r5, ror #21
    282c:	ea81 5174 	eor.w	r1, r1, r4, ror #21
    2830:	f8c0 1084 	str.w	r1, [r0, #132]	@ 0x84
    2834:	ea27 7136 	bic.w	r1, r7, r6, ror #28
    2838:	ea81 4175 	eor.w	r1, r1, r5, ror #17
    283c:	f8c0 103c 	str.w	r1, [r0, #60]	@ 0x3c
    2840:	ea23 6177 	bic.w	r1, r3, r7, ror #25
    2844:	ea81 5176 	eor.w	r1, r1, r6, ror #21
    2848:	f8c0 10bc 	str.w	r1, [r0, #188]	@ 0xbc
    284c:	ea24 51b3 	bic.w	r1, r4, r3, ror #22
    2850:	ea81 31f7 	eor.w	r1, r1, r7, ror #15
    2854:	f8c0 1074 	str.w	r1, [r0, #116]	@ 0x74
    2858:	ea25 0504 	bic.w	r5, r5, r4
    285c:	9905      	ldr	r1, [sp, #20]
    285e:	688c      	ldr	r4, [r1, #8]
    2860:	ea83 23b5 	eor.w	r3, r3, r5, ror #10
    2864:	ea84 0103 	eor.w	r1, r4, r3
    2868:	f8dd 2010 	ldr.w	r2, [sp, #16]
    286c:	f8d0 3090 	ldr.w	r3, [r0, #144]	@ 0x90
    2870:	f8d0 404c 	ldr.w	r4, [r0, #76]	@ 0x4c
    2874:	f8d0 50a0 	ldr.w	r5, [r0, #160]	@ 0xa0
    2878:	f8d0 6058 	ldr.w	r6, [r0, #88]	@ 0x58
    287c:	f8d0 7010 	ldr.w	r7, [r0, #16]
    2880:	f8c0 1000 	str.w	r1, [r0]
    2884:	ea89 0303 	eor.w	r3, r9, r3
    2888:	ea8e 54b4 	eor.w	r4, lr, r4, ror #22
    288c:	ea88 45f5 	eor.w	r5, r8, r5, ror #19
    2890:	ea8a 6636 	eor.w	r6, sl, r6, ror #24
    2894:	ea82 77f7 	eor.w	r7, r2, r7, ror #31
    2898:	ea25 51f4 	bic.w	r1, r5, r4, ror #23
    289c:	ea81 41f3 	eor.w	r1, r1, r3, ror #19
    28a0:	f8c0 10a0 	str.w	r1, [r0, #160]	@ 0xa0
    28a4:	ea26 5175 	bic.w	r1, r6, r5, ror #21
    28a8:	ea81 3134 	eor.w	r1, r1, r4, ror #12
    28ac:	f8c0 1058 	str.w	r1, [r0, #88]	@ 0x58
    28b0:	ea27 2136 	bic.w	r1, r7, r6, ror #8
    28b4:	ea81 7175 	eor.w	r1, r1, r5, ror #29
    28b8:	f8c0 1010 	str.w	r1, [r0, #16]
    28bc:	ea23 4137 	bic.w	r1, r3, r7, ror #16
    28c0:	ea81 6136 	eor.w	r1, r1, r6, ror #24
    28c4:	f8c0 1090 	str.w	r1, [r0, #144]	@ 0x90
    28c8:	ea24 7133 	bic.w	r1, r4, r3, ror #28
    28cc:	ea81 3137 	eor.w	r1, r1, r7, ror #12
    28d0:	f8d0 3034 	ldr.w	r3, [r0, #52]	@ 0x34
    28d4:	f8d0 40b4 	ldr.w	r4, [r0, #180]	@ 0xb4
    28d8:	f8d0 5068 	ldr.w	r5, [r0, #104]	@ 0x68
    28dc:	f8d0 6024 	ldr.w	r6, [r0, #36]	@ 0x24
    28e0:	f8d0 707c 	ldr.w	r7, [r0, #124]	@ 0x7c
    28e4:	f8c0 104c 	str.w	r1, [r0, #76]	@ 0x4c
    28e8:	ea8b 53b3 	eor.w	r3, fp, r3, ror #22
    28ec:	ea82 0474 	eor.w	r4, r2, r4, ror #1
    28f0:	ea89 0505 	eor.w	r5, r9, r5
    28f4:	ea8c 36b6 	eor.w	r6, ip, r6, ror #14
    28f8:	ea88 3737 	eor.w	r7, r8, r7, ror #12
    28fc:	ea25 21b4 	bic.w	r1, r5, r4, ror #10
    2900:	ea81 3133 	eor.w	r1, r1, r3, ror #12
    2904:	f8c0 107c 	str.w	r1, [r0, #124]	@ 0x7c
    2908:	ea26 51f5 	bic.w	r1, r6, r5, ror #23
    290c:	ea81 0174 	eor.w	r1, r1, r4, ror #1
    2910:	f8c0 1034 	str.w	r1, [r0, #52]	@ 0x34
    2914:	ea27 1176 	bic.w	r1, r7, r6, ror #5
    2918:	ea81 7135 	eor.w	r1, r1, r5, ror #28
    291c:	f8c0 10b4 	str.w	r1, [r0, #180]	@ 0xb4
    2920:	ea23 6137 	bic.w	r1, r3, r7, ror #24
    2924:	ea81 7176 	eor.w	r1, r1, r6, ror #29
    2928:	f8c0 1068 	str.w	r1, [r0, #104]	@ 0x68
    292c:	ea24 01b3 	bic.w	r1, r4, r3, ror #2
    2930:	ea81 61b7 	eor.w	r1, r1, r7, ror #26
    2934:	f8dd 8004 	ldr.w	r8, [sp, #4]
    2938:	f8d0 30c0 	ldr.w	r3, [r0, #192]	@ 0xc0
    293c:	f8d0 4050 	ldr.w	r4, [r0, #80]	@ 0x50
    2940:	f8d0 5008 	ldr.w	r5, [r0, #8]
    2944:	f8d0 608c 	ldr.w	r6, [r0, #140]	@ 0x8c
    2948:	f8d0 7040 	ldr.w	r7, [r0, #64]	@ 0x40
    294c:	f8c0 1024 	str.w	r1, [r0, #36]	@ 0x24
    2950:	ea8c 23b3 	eor.w	r3, ip, r3, ror #10
    2954:	ea88 74f4 	eor.w	r4, r8, r4, ror #31
    2958:	ea8b 7535 	eor.w	r5, fp, r5, ror #28
    295c:	ea82 1636 	eor.w	r6, r2, r6, ror #4
    2960:	ea89 0777 	eor.w	r7, r9, r7, ror #1
    2964:	ea25 41f4 	bic.w	r1, r5, r4, ror #19
    2968:	ea81 6133 	eor.w	r1, r1, r3, ror #24
    296c:	f8c0 1050 	str.w	r1, [r0, #80]	@ 0x50
    2970:	ea26 01b5 	bic.w	r1, r6, r5, ror #2
    2974:	ea81 5174 	eor.w	r1, r1, r4, ror #21
    2978:	f8c0 1008 	str.w	r1, [r0, #8]
    297c:	ea27 5176 	bic.w	r1, r7, r6, ror #21
    2980:	ea81 51f5 	eor.w	r1, r1, r5, ror #23
    2984:	f8c0 108c 	str.w	r1, [r0, #140]	@ 0x8c
    2988:	ea23 4177 	bic.w	r1, r3, r7, ror #17
    298c:	ea81 11b6 	eor.w	r1, r1, r6, ror #6
    2990:	f8c0 1040 	str.w	r1, [r0, #64]	@ 0x40
    2994:	ea24 1173 	bic.w	r1, r4, r3, ror #5
    2998:	ea81 51b7 	eor.w	r1, r1, r7, ror #22
    299c:	f8d0 3064 	ldr.w	r3, [r0, #100]	@ 0x64
    29a0:	f8d0 401c 	ldr.w	r4, [r0, #28]
    29a4:	f8d0 509c 	ldr.w	r5, [r0, #156]	@ 0x9c
    29a8:	f8d0 602c 	ldr.w	r6, [r0, #44]	@ 0x2c
    29ac:	f8d0 70a8 	ldr.w	r7, [r0, #168]	@ 0xa8
    29b0:	f8c0 10c0 	str.w	r1, [r0, #192]	@ 0xc0
    29b4:	ea82 6373 	eor.w	r3, r2, r3, ror #25
    29b8:	ea89 44b4 	eor.w	r4, r9, r4, ror #18
    29bc:	ea8e 7575 	eor.w	r5, lr, r5, ror #29
    29c0:	ea88 66f6 	eor.w	r6, r8, r6, ror #27
    29c4:	ea8a 27f7 	eor.w	r7, sl, r7, ror #11
    29c8:	ea25 6134 	bic.w	r1, r5, r4, ror #24
    29cc:	ea81 5173 	eor.w	r1, r1, r3, ror #21
    29d0:	f8c0 102c 	str.w	r1, [r0, #44]	@ 0x2c
    29d4:	ea26 0175 	bic.w	r1, r6, r5, ror #1
    29d8:	ea81 6174 	eor.w	r1, r1, r4, ror #25
    29dc:	f8c0 10a8 	str.w	r1, [r0, #168]	@ 0xa8
    29e0:	ea27 3136 	bic.w	r1, r7, r6, ror #12
    29e4:	ea81 3175 	eor.w	r1, r1, r5, ror #13
    29e8:	f8c0 1064 	str.w	r1, [r0, #100]	@ 0x64
    29ec:	ea23 71b7 	bic.w	r1, r3, r7, ror #30
    29f0:	ea81 21b6 	eor.w	r1, r1, r6, ror #10
    29f4:	f8c0 101c 	str.w	r1, [r0, #28]
    29f8:	ea24 7173 	bic.w	r1, r4, r3, ror #29
    29fc:	ea81 61f7 	eor.w	r1, r1, r7, ror #27
    2a00:	f8dd 9008 	ldr.w	r9, [sp, #8]
    2a04:	f8d0 3004 	ldr.w	r3, [r0, #4]
    2a08:	f8d0 4080 	ldr.w	r4, [r0, #128]	@ 0x80
    2a0c:	6b85      	ldr	r5, [r0, #56]	@ 0x38
    2a0e:	f8d0 60b8 	ldr.w	r6, [r0, #184]	@ 0xb8
    2a12:	6f07      	ldr	r7, [r0, #112]	@ 0x70
    2a14:	f8c0 109c 	str.w	r1, [r0, #156]	@ 0x9c
    2a18:	ea88 0303 	eor.w	r3, r8, r3
    2a1c:	ea8b 24b4 	eor.w	r4, fp, r4, ror #10
    2a20:	ea82 55f5 	eor.w	r5, r2, r5, ror #23
    2a24:	ea89 46b6 	eor.w	r6, r9, r6, ror #18
    2a28:	ea8e 1777 	eor.w	r7, lr, r7, ror #5
    2a2c:	ea26 5175 	bic.w	r1, r6, r5, ror #21
    2a30:	ea81 5134 	eor.w	r1, r1, r4, ror #20
    2a34:	f8c0 1080 	str.w	r1, [r0, #128]	@ 0x80
    2a38:	ea27 7176 	bic.w	r1, r7, r6, ror #29
    2a3c:	ea81 41b5 	eor.w	r1, r1, r5, ror #18
    2a40:	f8c0 1038 	str.w	r1, [r0, #56]	@ 0x38
    2a44:	ea23 6177 	bic.w	r1, r3, r7, ror #25
    2a48:	ea81 51b6 	eor.w	r1, r1, r6, ror #22
    2a4c:	f8c0 10b8 	str.w	r1, [r0, #184]	@ 0xb8
    2a50:	ea24 51b3 	bic.w	r1, r4, r3, ror #22
    2a54:	ea81 31f7 	eor.w	r1, r1, r7, ror #15
    2a58:	f8c0 1070 	str.w	r1, [r0, #112]	@ 0x70
    2a5c:	ea25 75f4 	bic.w	r5, r5, r4, ror #31
    2a60:	9905      	ldr	r1, [sp, #20]
    2a62:	68cc      	ldr	r4, [r1, #12]
    2a64:	ea83 23f5 	eor.w	r3, r3, r5, ror #11
    2a68:	ea84 0e03 	eor.w	lr, r4, r3
	KeccakRound2
    2a6c:	f8d0 3074 	ldr.w	r3, [r0, #116]	@ 0x74
    2a70:	f8d0 1048 	ldr.w	r1, [r0, #72]	@ 0x48
    2a74:	f8d0 5024 	ldr.w	r5, [r0, #36]	@ 0x24
    2a78:	f8d0 b0c4 	ldr.w	fp, [r0, #196]	@ 0xc4
    2a7c:	f8d0 c09c 	ldr.w	ip, [r0, #156]	@ 0x9c
    2a80:	f8c0 e004 	str.w	lr, [r0, #4]
    2a84:	ea83 3331 	eor.w	r3, r3, r1, ror #12
    2a88:	ea83 43f5 	eor.w	r3, r3, r5, ror #19
    2a8c:	ea83 133b 	eor.w	r3, r3, fp, ror #4
    2a90:	ea83 63bc 	eor.w	r3, r3, ip, ror #26
    2a94:	f8d0 7080 	ldr.w	r7, [r0, #128]	@ 0x80
    2a98:	f8d0 1058 	ldr.w	r1, [r0, #88]	@ 0x58
    2a9c:	f8d0 5030 	ldr.w	r5, [r0, #48]	@ 0x30
    2aa0:	f8d0 b008 	ldr.w	fp, [r0, #8]
    2aa4:	f8d0 c0ac 	ldr.w	ip, [r0, #172]	@ 0xac
    2aa8:	ea87 5731 	eor.w	r7, r7, r1, ror #20
    2aac:	ea87 17b5 	eor.w	r7, r7, r5, ror #6
    2ab0:	ea87 07fb 	eor.w	r7, r7, fp, ror #3
    2ab4:	ea87 57bc 	eor.w	r7, r7, ip, ror #22
    2ab8:	ea4f 23b3 	mov.w	r3, r3, ror #10
    2abc:	ea83 5677 	eor.w	r6, r3, r7, ror #21
    2ac0:	f8d0 4038 	ldr.w	r4, [r0, #56]	@ 0x38
    2ac4:	f8d0 1010 	ldr.w	r1, [r0, #16]
    2ac8:	f8d0 50b0 	ldr.w	r5, [r0, #176]	@ 0xb0
    2acc:	f8d0 b08c 	ldr.w	fp, [r0, #140]	@ 0x8c
    2ad0:	f8d0 c060 	ldr.w	ip, [r0, #96]	@ 0x60
    2ad4:	f8cd 6000 	str.w	r6, [sp]
    2ad8:	ea84 2471 	eor.w	r4, r4, r1, ror #9
    2adc:	ea84 74b5 	eor.w	r4, r4, r5, ror #30
    2ae0:	ea84 24fb 	eor.w	r4, r4, fp, ror #11
    2ae4:	ea84 14bc 	eor.w	r4, r4, ip, ror #6
    2ae8:	ea83 6674 	eor.w	r6, r3, r4, ror #25
    2aec:	f8d0 30bc 	ldr.w	r3, [r0, #188]	@ 0xbc
    2af0:	f8d0 1094 	ldr.w	r1, [r0, #148]	@ 0x94
    2af4:	f8d0 5068 	ldr.w	r5, [r0, #104]	@ 0x68
    2af8:	f8d0 b044 	ldr.w	fp, [r0, #68]	@ 0x44
    2afc:	f8d0 c01c 	ldr.w	ip, [r0, #28]
    2b00:	f8cd 600c 	str.w	r6, [sp, #12]
    2b04:	ea83 43b1 	eor.w	r3, r3, r1, ror #18
    2b08:	ea83 73f5 	eor.w	r3, r3, r5, ror #31
    2b0c:	ea83 43bb 	eor.w	r3, r3, fp, ror #18
    2b10:	ea83 037c 	eor.w	r3, r3, ip, ror #1
    2b14:	ea83 52b7 	eor.w	r2, r3, r7, ror #22
    2b18:	f8d0 7000 	ldr.w	r7, [r0]
    2b1c:	f8d0 10a4 	ldr.w	r1, [r0, #164]	@ 0xa4
    2b20:	f8d0 507c 	ldr.w	r5, [r0, #124]	@ 0x7c
    2b24:	f8d0 b054 	ldr.w	fp, [r0, #84]	@ 0x54
    2b28:	f8d0 c02c 	ldr.w	ip, [r0, #44]	@ 0x2c
    2b2c:	ea87 77b1 	eor.w	r7, r7, r1, ror #30
    2b30:	ea87 47f5 	eor.w	r7, r7, r5, ror #19
    2b34:	ea87 67fb 	eor.w	r7, r7, fp, ror #27
    2b38:	ea87 373c 	eor.w	r7, r7, ip, ror #12
    2b3c:	ea87 6a34 	eor.w	sl, r7, r4, ror #24
    2b40:	f8d0 40b8 	ldr.w	r4, [r0, #184]	@ 0xb8
    2b44:	f8d0 1090 	ldr.w	r1, [r0, #144]	@ 0x90
    2b48:	f8d0 506c 	ldr.w	r5, [r0, #108]	@ 0x6c
    2b4c:	f8d0 b040 	ldr.w	fp, [r0, #64]	@ 0x40
    2b50:	f8d0 c018 	ldr.w	ip, [r0, #24]
    2b54:	ea84 44b1 	eor.w	r4, r4, r1, ror #18
    2b58:	ea84 0405 	eor.w	r4, r4, r5
    2b5c:	ea84 44fb 	eor.w	r4, r4, fp, ror #19
    2b60:	ea84 047c 	eor.w	r4, r4, ip, ror #1
    2b64:	ea84 0e07 	eor.w	lr, r4, r7
    2b68:	f8d0 7084 	ldr.w	r7, [r0, #132]	@ 0x84
    2b6c:	f8d0 105c 	ldr.w	r1, [r0, #92]	@ 0x5c
    2b70:	f8d0 5034 	ldr.w	r5, [r0, #52]	@ 0x34
    2b74:	f8d0 b00c 	ldr.w	fp, [r0, #12]
    2b78:	f8d0 c0a8 	ldr.w	ip, [r0, #168]	@ 0xa8
    2b7c:	ea87 5731 	eor.w	r7, r7, r1, ror #20
    2b80:	ea87 17f5 	eor.w	r7, r7, r5, ror #7
    2b84:	ea87 07fb 	eor.w	r7, r7, fp, ror #3
    2b88:	ea87 57bc 	eor.w	r7, r7, ip, ror #22
    2b8c:	ea4f 5777 	mov.w	r7, r7, ror #21
    2b90:	ea87 76f4 	eor.w	r6, r7, r4, ror #31
    2b94:	f8d0 4070 	ldr.w	r4, [r0, #112]	@ 0x70
    2b98:	f8d0 104c 	ldr.w	r1, [r0, #76]	@ 0x4c
    2b9c:	f8d0 5020 	ldr.w	r5, [r0, #32]
    2ba0:	f8d0 b0c0 	ldr.w	fp, [r0, #192]	@ 0xc0
    2ba4:	f8d0 c098 	ldr.w	ip, [r0, #152]	@ 0x98
    2ba8:	f8cd 6010 	str.w	r6, [sp, #16]
    2bac:	ea84 3431 	eor.w	r4, r4, r1, ror #12
    2bb0:	ea84 44f5 	eor.w	r4, r4, r5, ror #19
    2bb4:	ea84 143b 	eor.w	r4, r4, fp, ror #4
    2bb8:	ea84 64fc 	eor.w	r4, r4, ip, ror #27
    2bbc:	ea87 28b4 	eor.w	r8, r7, r4, ror #10
    2bc0:	f8d0 703c 	ldr.w	r7, [r0, #60]	@ 0x3c
    2bc4:	f8d0 1014 	ldr.w	r1, [r0, #20]
    2bc8:	f8d0 50b4 	ldr.w	r5, [r0, #180]	@ 0xb4
    2bcc:	f8d0 b088 	ldr.w	fp, [r0, #136]	@ 0x88
    2bd0:	f8d0 c064 	ldr.w	ip, [r0, #100]	@ 0x64
    2bd4:	f8cd 8004 	str.w	r8, [sp, #4]
    2bd8:	ea87 2731 	eor.w	r7, r7, r1, ror #8
    2bdc:	ea87 77b5 	eor.w	r7, r7, r5, ror #30
    2be0:	ea87 27fb 	eor.w	r7, r7, fp, ror #11
    2be4:	ea87 17bc 	eor.w	r7, r7, ip, ror #6
    2be8:	ea4f 6777 	mov.w	r7, r7, ror #25
    2bec:	ea87 2974 	eor.w	r9, r7, r4, ror #9
    2bf0:	f8d0 4004 	ldr.w	r4, [r0, #4]
    2bf4:	f8d0 10a0 	ldr.w	r1, [r0, #160]	@ 0xa0
    2bf8:	f8d0 5078 	ldr.w	r5, [r0, #120]	@ 0x78
    2bfc:	f8d0 b050 	ldr.w	fp, [r0, #80]	@ 0x50
    2c00:	f8d0 c028 	ldr.w	ip, [r0, #40]	@ 0x28
    2c04:	f8cd 9008 	str.w	r9, [sp, #8]
    2c08:	ea84 74f1 	eor.w	r4, r4, r1, ror #31
    2c0c:	ea84 5435 	eor.w	r4, r4, r5, ror #20
    2c10:	ea84 64fb 	eor.w	r4, r4, fp, ror #27
    2c14:	ea84 347c 	eor.w	r4, r4, ip, ror #13
    2c18:	ea84 0b07 	eor.w	fp, r4, r7
    2c1c:	ea83 7cf4 	eor.w	ip, r3, r4, ror #31
    2c20:	f8d0 30bc 	ldr.w	r3, [r0, #188]	@ 0xbc
    2c24:	f8d0 4048 	ldr.w	r4, [r0, #72]	@ 0x48
    2c28:	f8d0 5078 	ldr.w	r5, [r0, #120]	@ 0x78
    2c2c:	f8d0 6008 	ldr.w	r6, [r0, #8]
    2c30:	f8d0 7060 	ldr.w	r7, [r0, #96]	@ 0x60
    2c34:	f8c0 1078 	str.w	r1, [r0, #120]	@ 0x78
    2c38:	ea89 0303 	eor.w	r3, r9, r3
    2c3c:	ea8c 54b4 	eor.w	r4, ip, r4, ror #22
    2c40:	ea88 5535 	eor.w	r5, r8, r5, ror #20
    2c44:	ea8b 6676 	eor.w	r6, fp, r6, ror #25
    2c48:	ea82 77f7 	eor.w	r7, r2, r7, ror #31
    2c4c:	ea25 6134 	bic.w	r1, r5, r4, ror #24
    2c50:	ea81 5133 	eor.w	r1, r1, r3, ror #20
    2c54:	f8c0 1078 	str.w	r1, [r0, #120]	@ 0x78
    2c58:	ea26 5175 	bic.w	r1, r6, r5, ror #21
    2c5c:	ea81 3174 	eor.w	r1, r1, r4, ror #13
    2c60:	f8c0 1008 	str.w	r1, [r0, #8]
    2c64:	ea27 2136 	bic.w	r1, r7, r6, ror #8
    2c68:	ea81 7175 	eor.w	r1, r1, r5, ror #29
    2c6c:	f8c0 1060 	str.w	r1, [r0, #96]	@ 0x60
    2c70:	ea23 31f7 	bic.w	r1, r3, r7, ror #15
    2c74:	ea81 51f6 	eor.w	r1, r1, r6, ror #23
    2c78:	f8c0 10bc 	str.w	r1, [r0, #188]	@ 0xbc
    2c7c:	ea24 7133 	bic.w	r1, r4, r3, ror #28
    2c80:	ea81 21f7 	eor.w	r1, r1, r7, ror #11
    2c84:	f8d0 3084 	ldr.w	r3, [r0, #132]	@ 0x84
    2c88:	f8d0 4010 	ldr.w	r4, [r0, #16]
    2c8c:	f8d0 5068 	ldr.w	r5, [r0, #104]	@ 0x68
    2c90:	f8d0 60c0 	ldr.w	r6, [r0, #192]	@ 0xc0
    2c94:	f8d0 7028 	ldr.w	r7, [r0, #40]	@ 0x28
    2c98:	f8c0 1048 	str.w	r1, [r0, #72]	@ 0x48
    2c9c:	ea8a 5373 	eor.w	r3, sl, r3, ror #21
    2ca0:	ea82 04b4 	eor.w	r4, r2, r4, ror #2
    2ca4:	ea89 75f5 	eor.w	r5, r9, r5, ror #31
    2ca8:	ea8e 36b6 	eor.w	r6, lr, r6, ror #14
    2cac:	ea88 3777 	eor.w	r7, r8, r7, ror #13
    2cb0:	ea25 2174 	bic.w	r1, r5, r4, ror #9
    2cb4:	ea81 3133 	eor.w	r1, r1, r3, ror #12
    2cb8:	f8c0 1028 	str.w	r1, [r0, #40]	@ 0x28
    2cbc:	ea26 6135 	bic.w	r1, r6, r5, ror #24
    2cc0:	ea81 0174 	eor.w	r1, r1, r4, ror #1
    2cc4:	f8c0 1084 	str.w	r1, [r0, #132]	@ 0x84
    2cc8:	ea27 1176 	bic.w	r1, r7, r6, ror #5
    2ccc:	ea81 7175 	eor.w	r1, r1, r5, ror #29
    2cd0:	f8c0 1010 	str.w	r1, [r0, #16]
    2cd4:	ea23 51f7 	bic.w	r1, r3, r7, ror #23
    2cd8:	ea81 7136 	eor.w	r1, r1, r6, ror #28
    2cdc:	f8c0 1068 	str.w	r1, [r0, #104]	@ 0x68
    2ce0:	ea24 01f3 	bic.w	r1, r4, r3, ror #3
    2ce4:	ea81 61b7 	eor.w	r1, r1, r7, ror #26
    2ce8:	f8dd 8000 	ldr.w	r8, [sp]
    2cec:	f8d0 3070 	ldr.w	r3, [r0, #112]	@ 0x70
    2cf0:	f8d0 40a4 	ldr.w	r4, [r0, #164]	@ 0xa4
    2cf4:	f8d0 5034 	ldr.w	r5, [r0, #52]	@ 0x34
    2cf8:	f8d0 608c 	ldr.w	r6, [r0, #140]	@ 0x8c
    2cfc:	f8d0 701c 	ldr.w	r7, [r0, #28]
    2d00:	f8c0 10c0 	str.w	r1, [r0, #192]	@ 0xc0
    2d04:	ea8e 23b3 	eor.w	r3, lr, r3, ror #10
    2d08:	ea88 74b4 	eor.w	r4, r8, r4, ror #30
    2d0c:	ea8a 7535 	eor.w	r5, sl, r5, ror #28
    2d10:	ea82 1636 	eor.w	r6, r2, r6, ror #4
    2d14:	ea89 0777 	eor.w	r7, r9, r7, ror #1
    2d18:	ea25 41f4 	bic.w	r1, r5, r4, ror #19
    2d1c:	ea81 51f3 	eor.w	r1, r1, r3, ror #23
    2d20:	f8c0 10a4 	str.w	r1, [r0, #164]	@ 0xa4
    2d24:	ea26 01f5 	bic.w	r1, r6, r5, ror #3
    2d28:	ea81 51b4 	eor.w	r1, r1, r4, ror #22
    2d2c:	f8c0 1034 	str.w	r1, [r0, #52]	@ 0x34
    2d30:	ea27 5136 	bic.w	r1, r7, r6, ror #20
    2d34:	ea81 51f5 	eor.w	r1, r1, r5, ror #23
    2d38:	f8c0 108c 	str.w	r1, [r0, #140]	@ 0x8c
    2d3c:	ea23 41b7 	bic.w	r1, r3, r7, ror #18
    2d40:	ea81 11b6 	eor.w	r1, r1, r6, ror #6
    2d44:	f8c0 101c 	str.w	r1, [r0, #28]
    2d48:	ea24 1133 	bic.w	r1, r4, r3, ror #4
    2d4c:	ea81 51b7 	eor.w	r1, r1, r7, ror #22
    2d50:	f8d0 3038 	ldr.w	r3, [r0, #56]	@ 0x38
    2d54:	f8d0 4094 	ldr.w	r4, [r0, #148]	@ 0x94
    2d58:	f8d0 5024 	ldr.w	r5, [r0, #36]	@ 0x24
    2d5c:	f8d0 6054 	ldr.w	r6, [r0, #84]	@ 0x54
    2d60:	f8d0 70ac 	ldr.w	r7, [r0, #172]	@ 0xac
    2d64:	f8c0 1070 	str.w	r1, [r0, #112]	@ 0x70
    2d68:	ea82 6373 	eor.w	r3, r2, r3, ror #25
    2d6c:	ea89 44b4 	eor.w	r4, r9, r4, ror #18
    2d70:	ea8c 7575 	eor.w	r5, ip, r5, ror #29
    2d74:	ea88 66f6 	eor.w	r6, r8, r6, ror #27
    2d78:	ea8b 3737 	eor.w	r7, fp, r7, ror #12
    2d7c:	ea25 6134 	bic.w	r1, r5, r4, ror #24
    2d80:	ea81 5133 	eor.w	r1, r1, r3, ror #20
    2d84:	f8c0 1054 	str.w	r1, [r0, #84]	@ 0x54
    2d88:	ea26 0175 	bic.w	r1, r6, r5, ror #1
    2d8c:	ea81 6174 	eor.w	r1, r1, r4, ror #25
    2d90:	f8c0 10ac 	str.w	r1, [r0, #172]	@ 0xac
    2d94:	ea27 3176 	bic.w	r1, r7, r6, ror #13
    2d98:	ea81 31b5 	eor.w	r1, r1, r5, ror #14
    2d9c:	f8c0 1038 	str.w	r1, [r0, #56]	@ 0x38
    2da0:	ea23 71b7 	bic.w	r1, r3, r7, ror #30
    2da4:	ea81 21f6 	eor.w	r1, r1, r6, ror #11
    2da8:	f8c0 1094 	str.w	r1, [r0, #148]	@ 0x94
    2dac:	ea24 7133 	bic.w	r1, r4, r3, ror #28
    2db0:	ea81 61b7 	eor.w	r1, r1, r7, ror #26
    2db4:	f8dd 900c 	ldr.w	r9, [sp, #12]
    2db8:	f8d0 3000 	ldr.w	r3, [r0]
    2dbc:	6dc4      	ldr	r4, [r0, #92]	@ 0x5c
    2dbe:	f8d0 50b0 	ldr.w	r5, [r0, #176]	@ 0xb0
    2dc2:	6c06      	ldr	r6, [r0, #64]	@ 0x40
    2dc4:	f8d0 709c 	ldr.w	r7, [r0, #156]	@ 0x9c
    2dc8:	f8c0 1024 	str.w	r1, [r0, #36]	@ 0x24
    2dcc:	ea88 0303 	eor.w	r3, r8, r3
    2dd0:	ea8a 2474 	eor.w	r4, sl, r4, ror #9
    2dd4:	ea82 55f5 	eor.w	r5, r2, r5, ror #23
    2dd8:	ea89 46f6 	eor.w	r6, r9, r6, ror #19
    2ddc:	ea8c 1737 	eor.w	r7, ip, r7, ror #4
    2de0:	ea26 5175 	bic.w	r1, r6, r5, ror #21
    2de4:	ea81 5174 	eor.w	r1, r1, r4, ror #21
    2de8:	f8c0 105c 	str.w	r1, [r0, #92]	@ 0x5c
    2dec:	ea27 7136 	bic.w	r1, r7, r6, ror #28
    2df0:	ea81 4175 	eor.w	r1, r1, r5, ror #17
    2df4:	f8c0 10b0 	str.w	r1, [r0, #176]	@ 0xb0
    2df8:	ea23 6177 	bic.w	r1, r3, r7, ror #25
    2dfc:	ea81 5176 	eor.w	r1, r1, r6, ror #21
    2e00:	f8c0 1040 	str.w	r1, [r0, #64]	@ 0x40
    2e04:	ea24 51b3 	bic.w	r1, r4, r3, ror #22
    2e08:	ea81 31f7 	eor.w	r1, r1, r7, ror #15
    2e0c:	f8c0 109c 	str.w	r1, [r0, #156]	@ 0x9c
    2e10:	ea25 0504 	bic.w	r5, r5, r4
    2e14:	9905      	ldr	r1, [sp, #20]
    2e16:	690c      	ldr	r4, [r1, #16]
    2e18:	ea83 23b5 	eor.w	r3, r3, r5, ror #10
    2e1c:	ea84 0103 	eor.w	r1, r4, r3
    2e20:	f8dd 2010 	ldr.w	r2, [sp, #16]
    2e24:	f8d0 30b8 	ldr.w	r3, [r0, #184]	@ 0xb8
    2e28:	f8d0 404c 	ldr.w	r4, [r0, #76]	@ 0x4c
    2e2c:	f8d0 507c 	ldr.w	r5, [r0, #124]	@ 0x7c
    2e30:	f8d0 600c 	ldr.w	r6, [r0, #12]
    2e34:	f8d0 7064 	ldr.w	r7, [r0, #100]	@ 0x64
    2e38:	f8c0 1000 	str.w	r1, [r0]
    2e3c:	ea89 0303 	eor.w	r3, r9, r3
    2e40:	ea8e 54b4 	eor.w	r4, lr, r4, ror #22
    2e44:	ea88 45f5 	eor.w	r5, r8, r5, ror #19
    2e48:	ea8a 6636 	eor.w	r6, sl, r6, ror #24
    2e4c:	ea82 77f7 	eor.w	r7, r2, r7, ror #31
    2e50:	ea25 51f4 	bic.w	r1, r5, r4, ror #23
    2e54:	ea81 41f3 	eor.w	r1, r1, r3, ror #19
    2e58:	f8c0 107c 	str.w	r1, [r0, #124]	@ 0x7c
    2e5c:	ea26 5175 	bic.w	r1, r6, r5, ror #21
    2e60:	ea81 3134 	eor.w	r1, r1, r4, ror #12
    2e64:	f8c0 100c 	str.w	r1, [r0, #12]
    2e68:	ea27 2136 	bic.w	r1, r7, r6, ror #8
    2e6c:	ea81 7175 	eor.w	r1, r1, r5, ror #29
    2e70:	f8c0 1064 	str.w	r1, [r0, #100]	@ 0x64
    2e74:	ea23 4137 	bic.w	r1, r3, r7, ror #16
    2e78:	ea81 6136 	eor.w	r1, r1, r6, ror #24
    2e7c:	f8c0 10b8 	str.w	r1, [r0, #184]	@ 0xb8
    2e80:	ea24 7133 	bic.w	r1, r4, r3, ror #28
    2e84:	ea81 3137 	eor.w	r1, r1, r7, ror #12
    2e88:	f8d0 3080 	ldr.w	r3, [r0, #128]	@ 0x80
    2e8c:	f8d0 4014 	ldr.w	r4, [r0, #20]
    2e90:	f8d0 506c 	ldr.w	r5, [r0, #108]	@ 0x6c
    2e94:	f8d0 60c4 	ldr.w	r6, [r0, #196]	@ 0xc4
    2e98:	f8d0 702c 	ldr.w	r7, [r0, #44]	@ 0x2c
    2e9c:	f8c0 104c 	str.w	r1, [r0, #76]	@ 0x4c
    2ea0:	ea8b 53b3 	eor.w	r3, fp, r3, ror #22
    2ea4:	ea82 0474 	eor.w	r4, r2, r4, ror #1
    2ea8:	ea89 0505 	eor.w	r5, r9, r5
    2eac:	ea8c 36b6 	eor.w	r6, ip, r6, ror #14
    2eb0:	ea88 3737 	eor.w	r7, r8, r7, ror #12
    2eb4:	ea25 21b4 	bic.w	r1, r5, r4, ror #10
    2eb8:	ea81 3133 	eor.w	r1, r1, r3, ror #12
    2ebc:	f8c0 102c 	str.w	r1, [r0, #44]	@ 0x2c
    2ec0:	ea26 51f5 	bic.w	r1, r6, r5, ror #23
    2ec4:	ea81 0174 	eor.w	r1, r1, r4, ror #1
    2ec8:	f8c0 1080 	str.w	r1, [r0, #128]	@ 0x80
    2ecc:	ea27 1176 	bic.w	r1, r7, r6, ror #5
    2ed0:	ea81 7135 	eor.w	r1, r1, r5, ror #28
    2ed4:	f8c0 1014 	str.w	r1, [r0, #20]
    2ed8:	ea23 6137 	bic.w	r1, r3, r7, ror #24
    2edc:	ea81 7176 	eor.w	r1, r1, r6, ror #29
    2ee0:	f8c0 106c 	str.w	r1, [r0, #108]	@ 0x6c
    2ee4:	ea24 01b3 	bic.w	r1, r4, r3, ror #2
    2ee8:	ea81 61b7 	eor.w	r1, r1, r7, ror #26
    2eec:	f8dd 8004 	ldr.w	r8, [sp, #4]
    2ef0:	f8d0 3074 	ldr.w	r3, [r0, #116]	@ 0x74
    2ef4:	f8d0 40a0 	ldr.w	r4, [r0, #160]	@ 0xa0
    2ef8:	f8d0 5030 	ldr.w	r5, [r0, #48]	@ 0x30
    2efc:	f8d0 6088 	ldr.w	r6, [r0, #136]	@ 0x88
    2f00:	f8d0 7018 	ldr.w	r7, [r0, #24]
    2f04:	f8c0 10c4 	str.w	r1, [r0, #196]	@ 0xc4
    2f08:	ea8c 23b3 	eor.w	r3, ip, r3, ror #10
    2f0c:	ea88 74f4 	eor.w	r4, r8, r4, ror #31
    2f10:	ea8b 7535 	eor.w	r5, fp, r5, ror #28
    2f14:	ea82 1636 	eor.w	r6, r2, r6, ror #4
    2f18:	ea89 0777 	eor.w	r7, r9, r7, ror #1
    2f1c:	ea25 41f4 	bic.w	r1, r5, r4, ror #19
    2f20:	ea81 6133 	eor.w	r1, r1, r3, ror #24
    2f24:	f8c0 10a0 	str.w	r1, [r0, #160]	@ 0xa0
    2f28:	ea26 01b5 	bic.w	r1, r6, r5, ror #2
    2f2c:	ea81 5174 	eor.w	r1, r1, r4, ror #21
    2f30:	f8c0 1030 	str.w	r1, [r0, #48]	@ 0x30
    2f34:	ea27 5176 	bic.w	r1, r7, r6, ror #21
    2f38:	ea81 51f5 	eor.w	r1, r1, r5, ror #23
    2f3c:	f8c0 1088 	str.w	r1, [r0, #136]	@ 0x88
    2f40:	ea23 4177 	bic.w	r1, r3, r7, ror #17
    2f44:	ea81 11b6 	eor.w	r1, r1, r6, ror #6
    2f48:	f8c0 1018 	str.w	r1, [r0, #24]
    2f4c:	ea24 1173 	bic.w	r1, r4, r3, ror #5
    2f50:	ea81 51b7 	eor.w	r1, r1, r7, ror #22
    2f54:	f8d0 303c 	ldr.w	r3, [r0, #60]	@ 0x3c
    2f58:	f8d0 4090 	ldr.w	r4, [r0, #144]	@ 0x90
    2f5c:	f8d0 5020 	ldr.w	r5, [r0, #32]
    2f60:	f8d0 6050 	ldr.w	r6, [r0, #80]	@ 0x50
    2f64:	f8d0 70a8 	ldr.w	r7, [r0, #168]	@ 0xa8
    2f68:	f8c0 1074 	str.w	r1, [r0, #116]	@ 0x74
    2f6c:	ea82 6373 	eor.w	r3, r2, r3, ror #25
    2f70:	ea89 44b4 	eor.w	r4, r9, r4, ror #18
    2f74:	ea8e 7575 	eor.w	r5, lr, r5, ror #29
    2f78:	ea88 66f6 	eor.w	r6, r8, r6, ror #27
    2f7c:	ea8a 27f7 	eor.w	r7, sl, r7, ror #11
    2f80:	ea25 6134 	bic.w	r1, r5, r4, ror #24
    2f84:	ea81 5173 	eor.w	r1, r1, r3, ror #21
    2f88:	f8c0 1050 	str.w	r1, [r0, #80]	@ 0x50
    2f8c:	ea26 0175 	bic.w	r1, r6, r5, ror #1
    2f90:	ea81 6174 	eor.w	r1, r1, r4, ror #25
    2f94:	f8c0 10a8 	str.w	r1, [r0, #168]	@ 0xa8
    2f98:	ea27 3136 	bic.w	r1, r7, r6, ror #12
    2f9c:	ea81 3175 	eor.w	r1, r1, r5, ror #13
    2fa0:	f8c0 103c 	str.w	r1, [r0, #60]	@ 0x3c
    2fa4:	ea23 71b7 	bic.w	r1, r3, r7, ror #30
    2fa8:	ea81 21b6 	eor.w	r1, r1, r6, ror #10
    2fac:	f8c0 1090 	str.w	r1, [r0, #144]	@ 0x90
    2fb0:	ea24 7173 	bic.w	r1, r4, r3, ror #29
    2fb4:	ea81 61f7 	eor.w	r1, r1, r7, ror #27
    2fb8:	f8dd 9008 	ldr.w	r9, [sp, #8]
    2fbc:	f8d0 3004 	ldr.w	r3, [r0, #4]
    2fc0:	6d84      	ldr	r4, [r0, #88]	@ 0x58
    2fc2:	f8d0 50b4 	ldr.w	r5, [r0, #180]	@ 0xb4
    2fc6:	6c46      	ldr	r6, [r0, #68]	@ 0x44
    2fc8:	f8d0 7098 	ldr.w	r7, [r0, #152]	@ 0x98
    2fcc:	f8c0 1020 	str.w	r1, [r0, #32]
    2fd0:	ea88 0303 	eor.w	r3, r8, r3
    2fd4:	ea8b 24b4 	eor.w	r4, fp, r4, ror #10
    2fd8:	ea82 55f5 	eor.w	r5, r2, r5, ror #23
    2fdc:	ea89 46b6 	eor.w	r6, r9, r6, ror #18
    2fe0:	ea8e 1777 	eor.w	r7, lr, r7, ror #5
    2fe4:	ea26 5175 	bic.w	r1, r6, r5, ror #21
    2fe8:	ea81 5134 	eor.w	r1, r1, r4, ror #20
    2fec:	f8c0 1058 	str.w	r1, [r0, #88]	@ 0x58
    2ff0:	ea27 7176 	bic.w	r1, r7, r6, ror #29
    2ff4:	ea81 41b5 	eor.w	r1, r1, r5, ror #18
    2ff8:	f8c0 10b4 	str.w	r1, [r0, #180]	@ 0xb4
    2ffc:	ea23 6177 	bic.w	r1, r3, r7, ror #25
    3000:	ea81 51b6 	eor.w	r1, r1, r6, ror #22
    3004:	f8c0 1044 	str.w	r1, [r0, #68]	@ 0x44
    3008:	ea24 51b3 	bic.w	r1, r4, r3, ror #22
    300c:	ea81 31f7 	eor.w	r1, r1, r7, ror #15
    3010:	f8c0 1098 	str.w	r1, [r0, #152]	@ 0x98
    3014:	ea25 75f4 	bic.w	r5, r5, r4, ror #31
    3018:	9905      	ldr	r1, [sp, #20]
    301a:	694c      	ldr	r4, [r1, #20]
    301c:	ea83 23f5 	eor.w	r3, r3, r5, ror #11
    3020:	ea84 0e03 	eor.w	lr, r4, r3
	KeccakRound3
    3024:	f8d0 309c 	ldr.w	r3, [r0, #156]	@ 0x9c
    3028:	f8d0 1048 	ldr.w	r1, [r0, #72]	@ 0x48
    302c:	f8d0 50c4 	ldr.w	r5, [r0, #196]	@ 0xc4
    3030:	f8d0 b070 	ldr.w	fp, [r0, #112]	@ 0x70
    3034:	f8d0 c020 	ldr.w	ip, [r0, #32]
    3038:	f8c0 e004 	str.w	lr, [r0, #4]
    303c:	ea83 3331 	eor.w	r3, r3, r1, ror #12
    3040:	ea83 43f5 	eor.w	r3, r3, r5, ror #19
    3044:	ea83 133b 	eor.w	r3, r3, fp, ror #4
    3048:	ea83 63bc 	eor.w	r3, r3, ip, ror #26
    304c:	f8d0 7058 	ldr.w	r7, [r0, #88]	@ 0x58
    3050:	f8d0 100c 	ldr.w	r1, [r0, #12]
    3054:	f8d0 5084 	ldr.w	r5, [r0, #132]	@ 0x84
    3058:	f8d0 b030 	ldr.w	fp, [r0, #48]	@ 0x30
    305c:	f8d0 c0ac 	ldr.w	ip, [r0, #172]	@ 0xac
    3060:	ea87 5731 	eor.w	r7, r7, r1, ror #20
    3064:	ea87 17b5 	eor.w	r7, r7, r5, ror #6
    3068:	ea87 07fb 	eor.w	r7, r7, fp, ror #3
    306c:	ea87 57bc 	eor.w	r7, r7, ip, ror #22
    3070:	ea4f 23b3 	mov.w	r3, r3, ror #10
    3074:	ea83 5677 	eor.w	r6, r3, r7, ror #21
    3078:	f8d0 40b4 	ldr.w	r4, [r0, #180]	@ 0xb4
    307c:	f8d0 1064 	ldr.w	r1, [r0, #100]	@ 0x64
    3080:	f8d0 5010 	ldr.w	r5, [r0, #16]
    3084:	f8d0 b088 	ldr.w	fp, [r0, #136]	@ 0x88
    3088:	f8d0 c038 	ldr.w	ip, [r0, #56]	@ 0x38
    308c:	f8cd 6000 	str.w	r6, [sp]
    3090:	ea84 2471 	eor.w	r4, r4, r1, ror #9
    3094:	ea84 74b5 	eor.w	r4, r4, r5, ror #30
    3098:	ea84 24fb 	eor.w	r4, r4, fp, ror #11
    309c:	ea84 14bc 	eor.w	r4, r4, ip, ror #6
    30a0:	ea83 6674 	eor.w	r6, r3, r4, ror #25
    30a4:	f8d0 3040 	ldr.w	r3, [r0, #64]	@ 0x40
    30a8:	f8d0 10bc 	ldr.w	r1, [r0, #188]	@ 0xbc
    30ac:	f8d0 506c 	ldr.w	r5, [r0, #108]	@ 0x6c
    30b0:	f8d0 b01c 	ldr.w	fp, [r0, #28]
    30b4:	f8d0 c090 	ldr.w	ip, [r0, #144]	@ 0x90
    30b8:	f8cd 600c 	str.w	r6, [sp, #12]
    30bc:	ea83 43b1 	eor.w	r3, r3, r1, ror #18
    30c0:	ea83 73f5 	eor.w	r3, r3, r5, ror #31
    30c4:	ea83 43bb 	eor.w	r3, r3, fp, ror #18
    30c8:	ea83 037c 	eor.w	r3, r3, ip, ror #1
    30cc:	ea83 52b7 	eor.w	r2, r3, r7, ror #22
    30d0:	f8d0 7000 	ldr.w	r7, [r0]
    30d4:	f8d0 1078 	ldr.w	r1, [r0, #120]	@ 0x78
    30d8:	f8d0 502c 	ldr.w	r5, [r0, #44]	@ 0x2c
    30dc:	f8d0 b0a4 	ldr.w	fp, [r0, #164]	@ 0xa4
    30e0:	f8d0 c050 	ldr.w	ip, [r0, #80]	@ 0x50
    30e4:	ea87 77b1 	eor.w	r7, r7, r1, ror #30
    30e8:	ea87 47f5 	eor.w	r7, r7, r5, ror #19
    30ec:	ea87 67fb 	eor.w	r7, r7, fp, ror #27
    30f0:	ea87 373c 	eor.w	r7, r7, ip, ror #12
    30f4:	ea87 6a34 	eor.w	sl, r7, r4, ror #24
    30f8:	f8d0 4044 	ldr.w	r4, [r0, #68]	@ 0x44
    30fc:	f8d0 10b8 	ldr.w	r1, [r0, #184]	@ 0xb8
    3100:	f8d0 5068 	ldr.w	r5, [r0, #104]	@ 0x68
    3104:	f8d0 b018 	ldr.w	fp, [r0, #24]
    3108:	f8d0 c094 	ldr.w	ip, [r0, #148]	@ 0x94
    310c:	ea84 44b1 	eor.w	r4, r4, r1, ror #18
    3110:	ea84 0405 	eor.w	r4, r4, r5
    3114:	ea84 44fb 	eor.w	r4, r4, fp, ror #19
    3118:	ea84 047c 	eor.w	r4, r4, ip, ror #1
    311c:	ea84 0e07 	eor.w	lr, r4, r7
    3120:	f8d0 705c 	ldr.w	r7, [r0, #92]	@ 0x5c
    3124:	f8d0 1008 	ldr.w	r1, [r0, #8]
    3128:	f8d0 5080 	ldr.w	r5, [r0, #128]	@ 0x80
    312c:	f8d0 b034 	ldr.w	fp, [r0, #52]	@ 0x34
    3130:	f8d0 c0a8 	ldr.w	ip, [r0, #168]	@ 0xa8
    3134:	ea87 5731 	eor.w	r7, r7, r1, ror #20
    3138:	ea87 17f5 	eor.w	r7, r7, r5, ror #7
    313c:	ea87 07fb 	eor.w	r7, r7, fp, ror #3
    3140:	ea87 57bc 	eor.w	r7, r7, ip, ror #22
    3144:	ea4f 5777 	mov.w	r7, r7, ror #21
    3148:	ea87 76f4 	eor.w	r6, r7, r4, ror #31
    314c:	f8d0 4098 	ldr.w	r4, [r0, #152]	@ 0x98
    3150:	f8d0 104c 	ldr.w	r1, [r0, #76]	@ 0x4c
    3154:	f8d0 50c0 	ldr.w	r5, [r0, #192]	@ 0xc0
    3158:	f8d0 b074 	ldr.w	fp, [r0, #116]	@ 0x74
    315c:	f8d0 c024 	ldr.w	ip, [r0, #36]	@ 0x24
    3160:	f8cd 6010 	str.w	r6, [sp, #16]
    3164:	ea84 3431 	eor.w	r4, r4, r1, ror #12
    3168:	ea84 44f5 	eor.w	r4, r4, r5, ror #19
    316c:	ea84 143b 	eor.w	r4, r4, fp, ror #4
    3170:	ea84 64fc 	eor.w	r4, r4, ip, ror #27
    3174:	ea87 28b4 	eor.w	r8, r7, r4, ror #10
    3178:	f8d0 70b0 	ldr.w	r7, [r0, #176]	@ 0xb0
    317c:	f8d0 1060 	ldr.w	r1, [r0, #96]	@ 0x60
    3180:	f8d0 5014 	ldr.w	r5, [r0, #20]
    3184:	f8d0 b08c 	ldr.w	fp, [r0, #140]	@ 0x8c
    3188:	f8d0 c03c 	ldr.w	ip, [r0, #60]	@ 0x3c
    318c:	f8cd 8004 	str.w	r8, [sp, #4]
    3190:	ea87 2731 	eor.w	r7, r7, r1, ror #8
    3194:	ea87 77b5 	eor.w	r7, r7, r5, ror #30
    3198:	ea87 27fb 	eor.w	r7, r7, fp, ror #11
    319c:	ea87 17bc 	eor.w	r7, r7, ip, ror #6
    31a0:	ea4f 6777 	mov.w	r7, r7, ror #25
    31a4:	ea87 2974 	eor.w	r9, r7, r4, ror #9
    31a8:	f8d0 4004 	ldr.w	r4, [r0, #4]
    31ac:	f8d0 107c 	ldr.w	r1, [r0, #124]	@ 0x7c
    31b0:	f8d0 5028 	ldr.w	r5, [r0, #40]	@ 0x28
    31b4:	f8d0 b0a0 	ldr.w	fp, [r0, #160]	@ 0xa0
    31b8:	f8d0 c054 	ldr.w	ip, [r0, #84]	@ 0x54
    31bc:	f8cd 9008 	str.w	r9, [sp, #8]
    31c0:	ea84 74f1 	eor.w	r4, r4, r1, ror #31
    31c4:	ea84 5435 	eor.w	r4, r4, r5, ror #20
    31c8:	ea84 64fb 	eor.w	r4, r4, fp, ror #27
    31cc:	ea84 347c 	eor.w	r4, r4, ip, ror #13
    31d0:	ea84 0b07 	eor.w	fp, r4, r7
    31d4:	ea83 7cf4 	eor.w	ip, r3, r4, ror #31
    31d8:	f8d0 3040 	ldr.w	r3, [r0, #64]	@ 0x40
    31dc:	f8d0 4048 	ldr.w	r4, [r0, #72]	@ 0x48
    31e0:	f8d0 5028 	ldr.w	r5, [r0, #40]	@ 0x28
    31e4:	f8d0 6030 	ldr.w	r6, [r0, #48]	@ 0x30
    31e8:	f8d0 7038 	ldr.w	r7, [r0, #56]	@ 0x38
    31ec:	f8c0 1028 	str.w	r1, [r0, #40]	@ 0x28
    31f0:	ea89 0303 	eor.w	r3, r9, r3
    31f4:	ea8c 54b4 	eor.w	r4, ip, r4, ror #22
    31f8:	ea88 5535 	eor.w	r5, r8, r5, ror #20
    31fc:	ea8b 6676 	eor.w	r6, fp, r6, ror #25
    3200:	ea82 77f7 	eor.w	r7, r2, r7, ror #31
    3204:	ea25 6134 	bic.w	r1, r5, r4, ror #24
    3208:	ea81 5133 	eor.w	r1, r1, r3, ror #20
    320c:	ea4f 71b1 	mov.w	r1, r1, ror #30
    3210:	f8c0 1028 	str.w	r1, [r0, #40]	@ 0x28
    3214:	ea26 5175 	bic.w	r1, r6, r5, ror #21
    3218:	ea81 3174 	eor.w	r1, r1, r4, ror #13
    321c:	ea4f 2171 	mov.w	r1, r1, ror #9
    3220:	f8c0 1030 	str.w	r1, [r0, #48]	@ 0x30
    3224:	ea27 2136 	bic.w	r1, r7, r6, ror #8
    3228:	ea81 7175 	eor.w	r1, r1, r5, ror #29
    322c:	ea4f 0171 	mov.w	r1, r1, ror #1
    3230:	f8c0 1038 	str.w	r1, [r0, #56]	@ 0x38
    3234:	ea23 31f7 	bic.w	r1, r3, r7, ror #15
    3238:	ea81 51f6 	eor.w	r1, r1, r6, ror #23
    323c:	ea4f 41b1 	mov.w	r1, r1, ror #18
    3240:	f8c0 1040 	str.w	r1, [r0, #64]	@ 0x40
    3244:	ea24 7133 	bic.w	r1, r4, r3, ror #28
    3248:	ea81 21f7 	eor.w	r1, r1, r7, ror #11
    324c:	ea4f 51b1 	mov.w	r1, r1, ror #22
    3250:	f8d0 305c 	ldr.w	r3, [r0, #92]	@ 0x5c
    3254:	f8d0 4064 	ldr.w	r4, [r0, #100]	@ 0x64
    3258:	f8d0 506c 	ldr.w	r5, [r0, #108]	@ 0x6c
    325c:	f8d0 6074 	ldr.w	r6, [r0, #116]	@ 0x74
    3260:	f8d0 7054 	ldr.w	r7, [r0, #84]	@ 0x54
    3264:	f8c0 1048 	str.w	r1, [r0, #72]	@ 0x48
    3268:	ea8a 5373 	eor.w	r3, sl, r3, ror #21
    326c:	ea82 04b4 	eor.w	r4, r2, r4, ror #2
    3270:	ea89 75f5 	eor.w	r5, r9, r5, ror #31
    3274:	ea8e 36b6 	eor.w	r6, lr, r6, ror #14
    3278:	ea88 3777 	eor.w	r7, r8, r7, ror #13
    327c:	ea25 2174 	bic.w	r1, r5, r4, ror #9
    3280:	ea81 3133 	eor.w	r1, r1, r3, ror #12
    3284:	ea4f 5131 	mov.w	r1, r1, ror #20
    3288:	f8c0 1054 	str.w	r1, [r0, #84]	@ 0x54
    328c:	ea26 6135 	bic.w	r1, r6, r5, ror #24
    3290:	ea81 0174 	eor.w	r1, r1, r4, ror #1
    3294:	ea4f 7131 	mov.w	r1, r1, ror #28
    3298:	f8c0 105c 	str.w	r1, [r0, #92]	@ 0x5c
    329c:	ea27 1176 	bic.w	r1, r7, r6, ror #5
    32a0:	ea81 7175 	eor.w	r1, r1, r5, ror #29
    32a4:	ea4f 51f1 	mov.w	r1, r1, ror #23
    32a8:	f8c0 1064 	str.w	r1, [r0, #100]	@ 0x64
    32ac:	ea23 51f7 	bic.w	r1, r3, r7, ror #23
    32b0:	ea81 7136 	eor.w	r1, r1, r6, ror #28
    32b4:	f8c0 106c 	str.w	r1, [r0, #108]	@ 0x6c
    32b8:	ea24 01f3 	bic.w	r1, r4, r3, ror #3
    32bc:	ea81 61b7 	eor.w	r1, r1, r7, ror #26
    32c0:	ea4f 7171 	mov.w	r1, r1, ror #29
    32c4:	f8dd 8000 	ldr.w	r8, [sp]
    32c8:	f8d0 3098 	ldr.w	r3, [r0, #152]	@ 0x98
    32cc:	f8d0 4078 	ldr.w	r4, [r0, #120]	@ 0x78
    32d0:	f8d0 5080 	ldr.w	r5, [r0, #128]	@ 0x80
    32d4:	f8d0 6088 	ldr.w	r6, [r0, #136]	@ 0x88
    32d8:	f8d0 7090 	ldr.w	r7, [r0, #144]	@ 0x90
    32dc:	f8c0 1074 	str.w	r1, [r0, #116]	@ 0x74
    32e0:	ea8e 23b3 	eor.w	r3, lr, r3, ror #10
    32e4:	ea88 74b4 	eor.w	r4, r8, r4, ror #30
    32e8:	ea8a 7535 	eor.w	r5, sl, r5, ror #28
    32ec:	ea82 1636 	eor.w	r6, r2, r6, ror #4
    32f0:	ea89 0777 	eor.w	r7, r9, r7, ror #1
    32f4:	ea25 41f4 	bic.w	r1, r5, r4, ror #19
    32f8:	ea81 51f3 	eor.w	r1, r1, r3, ror #23
    32fc:	ea4f 61f1 	mov.w	r1, r1, ror #27
    3300:	f8c0 1078 	str.w	r1, [r0, #120]	@ 0x78
    3304:	ea26 01f5 	bic.w	r1, r6, r5, ror #3
    3308:	ea81 51b4 	eor.w	r1, r1, r4, ror #22
    330c:	ea4f 6131 	mov.w	r1, r1, ror #24
    3310:	f8c0 1080 	str.w	r1, [r0, #128]	@ 0x80
    3314:	ea27 5136 	bic.w	r1, r7, r6, ror #20
    3318:	ea81 51f5 	eor.w	r1, r1, r5, ror #23
    331c:	ea4f 1131 	mov.w	r1, r1, ror #4
    3320:	f8c0 1088 	str.w	r1, [r0, #136]	@ 0x88
    3324:	ea23 41b7 	bic.w	r1, r3, r7, ror #18
    3328:	ea81 11b6 	eor.w	r1, r1, r6, ror #6
    332c:	ea4f 41b1 	mov.w	r1, r1, ror #18
    3330:	f8c0 1090 	str.w	r1, [r0, #144]	@ 0x90
    3334:	ea24 1133 	bic.w	r1, r4, r3, ror #4
    3338:	ea81 51b7 	eor.w	r1, r1, r7, ror #22
    333c:	ea4f 31b1 	mov.w	r1, r1, ror #14
    3340:	f8d0 30b4 	ldr.w	r3, [r0, #180]	@ 0xb4
    3344:	f8d0 40bc 	ldr.w	r4, [r0, #188]	@ 0xbc
    3348:	f8d0 50c4 	ldr.w	r5, [r0, #196]	@ 0xc4
    334c:	f8d0 60a4 	ldr.w	r6, [r0, #164]	@ 0xa4
    3350:	f8d0 70ac 	ldr.w	r7, [r0, #172]	@ 0xac
    3354:	f8c0 1098 	str.w	r1, [r0, #152]	@ 0x98
    3358:	ea82 6373 	eor.w	r3, r2, r3, ror #25
    335c:	ea89 44b4 	eor.w	r4, r9, r4, ror #18
    3360:	ea8c 7575 	eor.w	r5, ip, r5, ror #29
    3364:	ea88 66f6 	eor.w	r6, r8, r6, ror #27
    3368:	ea8b 3737 	eor.w	r7, fp, r7, ror #12
    336c:	ea25 6134 	bic.w	r1, r5, r4, ror #24
    3370:	ea81 5133 	eor.w	r1, r1, r3, ror #20
    3374:	ea4f 3171 	mov.w	r1, r1, ror #13
    3378:	f8c0 10a4 	str.w	r1, [r0, #164]	@ 0xa4
    337c:	ea26 0175 	bic.w	r1, r6, r5, ror #1
    3380:	ea81 6174 	eor.w	r1, r1, r4, ror #25
    3384:	ea4f 3131 	mov.w	r1, r1, ror #12
    3388:	f8c0 10ac 	str.w	r1, [r0, #172]	@ 0xac
    338c:	ea27 3176 	bic.w	r1, r7, r6, ror #13
    3390:	ea81 31b5 	eor.w	r1, r1, r5, ror #14
    3394:	ea4f 71f1 	mov.w	r1, r1, ror #31
    3398:	f8c0 10b4 	str.w	r1, [r0, #180]	@ 0xb4
    339c:	ea23 71b7 	bic.w	r1, r3, r7, ror #30
    33a0:	ea81 21f6 	eor.w	r1, r1, r6, ror #11
    33a4:	ea4f 0171 	mov.w	r1, r1, ror #1
    33a8:	f8c0 10bc 	str.w	r1, [r0, #188]	@ 0xbc
    33ac:	ea24 7133 	bic.w	r1, r4, r3, ror #28
    33b0:	ea81 61b7 	eor.w	r1, r1, r7, ror #26
    33b4:	ea4f 1171 	mov.w	r1, r1, ror #5
    33b8:	f8dd 900c 	ldr.w	r9, [sp, #12]
    33bc:	f8d0 3000 	ldr.w	r3, [r0]
    33c0:	6884      	ldr	r4, [r0, #8]
    33c2:	6905      	ldr	r5, [r0, #16]
    33c4:	6986      	ldr	r6, [r0, #24]
    33c6:	6a07      	ldr	r7, [r0, #32]
    33c8:	f8c0 10c4 	str.w	r1, [r0, #196]	@ 0xc4
    33cc:	ea88 0303 	eor.w	r3, r8, r3
    33d0:	ea8a 2474 	eor.w	r4, sl, r4, ror #9
    33d4:	ea82 55f5 	eor.w	r5, r2, r5, ror #23
    33d8:	ea89 46f6 	eor.w	r6, r9, r6, ror #19
    33dc:	ea8c 1737 	eor.w	r7, ip, r7, ror #4
    33e0:	ea26 5175 	bic.w	r1, r6, r5, ror #21
    33e4:	ea81 5174 	eor.w	r1, r1, r4, ror #21
    33e8:	ea4f 5171 	mov.w	r1, r1, ror #21
    33ec:	f8c0 1008 	str.w	r1, [r0, #8]
    33f0:	ea27 7136 	bic.w	r1, r7, r6, ror #28
    33f4:	ea81 4175 	eor.w	r1, r1, r5, ror #17
    33f8:	ea4f 6171 	mov.w	r1, r1, ror #25
    33fc:	f8c0 1010 	str.w	r1, [r0, #16]
    3400:	ea23 6177 	bic.w	r1, r3, r7, ror #25
    3404:	ea81 5176 	eor.w	r1, r1, r6, ror #21
    3408:	f8c0 1018 	str.w	r1, [r0, #24]
    340c:	ea24 51b3 	bic.w	r1, r4, r3, ror #22
    3410:	ea81 31f7 	eor.w	r1, r1, r7, ror #15
    3414:	ea4f 21b1 	mov.w	r1, r1, ror #10
    3418:	f8c0 1020 	str.w	r1, [r0, #32]
    341c:	ea25 0504 	bic.w	r5, r5, r4
    3420:	9905      	ldr	r1, [sp, #20]
    3422:	698c      	ldr	r4, [r1, #24]
    3424:	ea83 23b5 	eor.w	r3, r3, r5, ror #10
    3428:	ea84 0103 	eor.w	r1, r4, r3
    342c:	f8dd 2010 	ldr.w	r2, [sp, #16]
    3430:	f8d0 3044 	ldr.w	r3, [r0, #68]	@ 0x44
    3434:	f8d0 404c 	ldr.w	r4, [r0, #76]	@ 0x4c
    3438:	f8d0 502c 	ldr.w	r5, [r0, #44]	@ 0x2c
    343c:	f8d0 6034 	ldr.w	r6, [r0, #52]	@ 0x34
    3440:	f8d0 703c 	ldr.w	r7, [r0, #60]	@ 0x3c
    3444:	f8c0 1000 	str.w	r1, [r0]
    3448:	ea89 0303 	eor.w	r3, r9, r3
    344c:	ea8e 54b4 	eor.w	r4, lr, r4, ror #22
    3450:	ea88 45f5 	eor.w	r5, r8, r5, ror #19
    3454:	ea8a 6636 	eor.w	r6, sl, r6, ror #24
    3458:	ea82 77f7 	eor.w	r7, r2, r7, ror #31
    345c:	ea25 51f4 	bic.w	r1, r5, r4, ror #23
    3460:	ea81 41f3 	eor.w	r1, r1, r3, ror #19
    3464:	ea4f 71f1 	mov.w	r1, r1, ror #31
    3468:	f8c0 102c 	str.w	r1, [r0, #44]	@ 0x2c
    346c:	ea26 5175 	bic.w	r1, r6, r5, ror #21
    3470:	ea81 3134 	eor.w	r1, r1, r4, ror #12
    3474:	ea4f 21b1 	mov.w	r1, r1, ror #10
    3478:	f8c0 1034 	str.w	r1, [r0, #52]	@ 0x34
    347c:	ea27 2136 	bic.w	r1, r7, r6, ror #8
    3480:	ea81 7175 	eor.w	r1, r1, r5, ror #29
    3484:	ea4f 01b1 	mov.w	r1, r1, ror #2
    3488:	f8c0 103c 	str.w	r1, [r0, #60]	@ 0x3c
    348c:	ea23 4137 	bic.w	r1, r3, r7, ror #16
    3490:	ea81 6136 	eor.w	r1, r1, r6, ror #24
    3494:	ea4f 41b1 	mov.w	r1, r1, ror #18
    3498:	f8c0 1044 	str.w	r1, [r0, #68]	@ 0x44
    349c:	ea24 7133 	bic.w	r1, r4, r3, ror #28
    34a0:	ea81 3137 	eor.w	r1, r1, r7, ror #12
    34a4:	ea4f 51b1 	mov.w	r1, r1, ror #22
    34a8:	f8d0 3058 	ldr.w	r3, [r0, #88]	@ 0x58
    34ac:	f8d0 4060 	ldr.w	r4, [r0, #96]	@ 0x60
    34b0:	f8d0 5068 	ldr.w	r5, [r0, #104]	@ 0x68
    34b4:	f8d0 6070 	ldr.w	r6, [r0, #112]	@ 0x70
    34b8:	f8d0 7050 	ldr.w	r7, [r0, #80]	@ 0x50
    34bc:	f8c0 104c 	str.w	r1, [r0, #76]	@ 0x4c
    34c0:	ea8b 53b3 	eor.w	r3, fp, r3, ror #22
    34c4:	ea82 0474 	eor.w	r4, r2, r4, ror #1
    34c8:	ea89 0505 	eor.w	r5, r9, r5
    34cc:	ea8c 36b6 	eor.w	r6, ip, r6, ror #14
    34d0:	ea88 3737 	eor.w	r7, r8, r7, ror #12
    34d4:	ea25 21b4 	bic.w	r1, r5, r4, ror #10
    34d8:	ea81 3133 	eor.w	r1, r1, r3, ror #12
    34dc:	ea4f 41f1 	mov.w	r1, r1, ror #19
    34e0:	f8c0 1050 	str.w	r1, [r0, #80]	@ 0x50
    34e4:	ea26 51f5 	bic.w	r1, r6, r5, ror #23
    34e8:	ea81 0174 	eor.w	r1, r1, r4, ror #1
    34ec:	ea4f 7131 	mov.w	r1, r1, ror #28
    34f0:	f8c0 1058 	str.w	r1, [r0, #88]	@ 0x58
    34f4:	ea27 1176 	bic.w	r1, r7, r6, ror #5
    34f8:	ea81 7135 	eor.w	r1, r1, r5, ror #28
    34fc:	ea4f 51f1 	mov.w	r1, r1, ror #23
    3500:	f8c0 1060 	str.w	r1, [r0, #96]	@ 0x60
    3504:	ea23 6137 	bic.w	r1, r3, r7, ror #24
    3508:	ea81 7176 	eor.w	r1, r1, r6, ror #29
    350c:	ea4f 71f1 	mov.w	r1, r1, ror #31
    3510:	f8c0 1068 	str.w	r1, [r0, #104]	@ 0x68
    3514:	ea24 01b3 	bic.w	r1, r4, r3, ror #2
    3518:	ea81 61b7 	eor.w	r1, r1, r7, ror #26
    351c:	ea4f 7171 	mov.w	r1, r1, ror #29
    3520:	f8dd 8004 	ldr.w	r8, [sp, #4]
    3524:	f8d0 309c 	ldr.w	r3, [r0, #156]	@ 0x9c
    3528:	f8d0 407c 	ldr.w	r4, [r0, #124]	@ 0x7c
    352c:	f8d0 5084 	ldr.w	r5, [r0, #132]	@ 0x84
    3530:	f8d0 608c 	ldr.w	r6, [r0, #140]	@ 0x8c
    3534:	f8d0 7094 	ldr.w	r7, [r0, #148]	@ 0x94
    3538:	f8c0 1070 	str.w	r1, [r0, #112]	@ 0x70
    353c:	ea8c 23b3 	eor.w	r3, ip, r3, ror #10
    3540:	ea88 74f4 	eor.w	r4, r8, r4, ror #31
    3544:	ea8b 7535 	eor.w	r5, fp, r5, ror #28
    3548:	ea82 1636 	eor.w	r6, r2, r6, ror #4
    354c:	ea89 0777 	eor.w	r7, r9, r7, ror #1
    3550:	ea25 41f4 	bic.w	r1, r5, r4, ror #19
    3554:	ea81 6133 	eor.w	r1, r1, r3, ror #24
    3558:	ea4f 61f1 	mov.w	r1, r1, ror #27
    355c:	f8c0 107c 	str.w	r1, [r0, #124]	@ 0x7c
    3560:	ea26 01b5 	bic.w	r1, r6, r5, ror #2
    3564:	ea81 5174 	eor.w	r1, r1, r4, ror #21
    3568:	ea4f 6171 	mov.w	r1, r1, ror #25
    356c:	f8c0 1084 	str.w	r1, [r0, #132]	@ 0x84
    3570:	ea27 5176 	bic.w	r1, r7, r6, ror #21
    3574:	ea81 51f5 	eor.w	r1, r1, r5, ror #23
    3578:	ea4f 1131 	mov.w	r1, r1, ror #4
    357c:	f8c0 108c 	str.w	r1, [r0, #140]	@ 0x8c
    3580:	ea23 4177 	bic.w	r1, r3, r7, ror #17
    3584:	ea81 11b6 	eor.w	r1, r1, r6, ror #6
    3588:	ea4f 41f1 	mov.w	r1, r1, ror #19
    358c:	f8c0 1094 	str.w	r1, [r0, #148]	@ 0x94
    3590:	ea24 1173 	bic.w	r1, r4, r3, ror #5
    3594:	ea81 51b7 	eor.w	r1, r1, r7, ror #22
    3598:	ea4f 31b1 	mov.w	r1, r1, ror #14
    359c:	f8d0 30b0 	ldr.w	r3, [r0, #176]	@ 0xb0
    35a0:	f8d0 40b8 	ldr.w	r4, [r0, #184]	@ 0xb8
    35a4:	f8d0 50c0 	ldr.w	r5, [r0, #192]	@ 0xc0
    35a8:	f8d0 60a0 	ldr.w	r6, [r0, #160]	@ 0xa0
    35ac:	f8d0 70a8 	ldr.w	r7, [r0, #168]	@ 0xa8
    35b0:	f8c0 109c 	str.w	r1, [r0, #156]	@ 0x9c
    35b4:	ea82 6373 	eor.w	r3, r2, r3, ror #25
    35b8:	ea89 44b4 	eor.w	r4, r9, r4, ror #18
    35bc:	ea8e 7575 	eor.w	r5, lr, r5, ror #29
    35c0:	ea88 66f6 	eor.w	r6, r8, r6, ror #27
    35c4:	ea8a 27f7 	eor.w	r7, sl, r7, ror #11
    35c8:	ea25 6134 	bic.w	r1, r5, r4, ror #24
    35cc:	ea81 5173 	eor.w	r1, r1, r3, ror #21
    35d0:	ea4f 3131 	mov.w	r1, r1, ror #12
    35d4:	f8c0 10a0 	str.w	r1, [r0, #160]	@ 0xa0
    35d8:	ea26 0175 	bic.w	r1, r6, r5, ror #1
    35dc:	ea81 6174 	eor.w	r1, r1, r4, ror #25
    35e0:	ea4f 21f1 	mov.w	r1, r1, ror #11
    35e4:	f8c0 10a8 	str.w	r1, [r0, #168]	@ 0xa8
    35e8:	ea27 3136 	bic.w	r1, r7, r6, ror #12
    35ec:	ea81 3175 	eor.w	r1, r1, r5, ror #13
    35f0:	ea4f 71f1 	mov.w	r1, r1, ror #31
    35f4:	f8c0 10b0 	str.w	r1, [r0, #176]	@ 0xb0
    35f8:	ea23 71b7 	bic.w	r1, r3, r7, ror #30
    35fc:	ea81 21b6 	eor.w	r1, r1, r6, ror #10
    3600:	ea4f 0171 	mov.w	r1, r1, ror #1
    3604:	f8c0 10b8 	str.w	r1, [r0, #184]	@ 0xb8
    3608:	ea24 7173 	bic.w	r1, r4, r3, ror #29
    360c:	ea81 61f7 	eor.w	r1, r1, r7, ror #27
    3610:	ea4f 1131 	mov.w	r1, r1, ror #4
    3614:	f8dd 9008 	ldr.w	r9, [sp, #8]
    3618:	f8d0 3004 	ldr.w	r3, [r0, #4]
    361c:	68c4      	ldr	r4, [r0, #12]
    361e:	6945      	ldr	r5, [r0, #20]
    3620:	69c6      	ldr	r6, [r0, #28]
    3622:	6a47      	ldr	r7, [r0, #36]	@ 0x24
    3624:	f8c0 10c0 	str.w	r1, [r0, #192]	@ 0xc0
    3628:	ea88 0303 	eor.w	r3, r8, r3
    362c:	ea8b 24b4 	eor.w	r4, fp, r4, ror #10
    3630:	ea82 55f5 	eor.w	r5, r2, r5, ror #23
    3634:	ea89 46b6 	eor.w	r6, r9, r6, ror #18
    3638:	ea8e 1777 	eor.w	r7, lr, r7, ror #5
    363c:	ea26 5175 	bic.w	r1, r6, r5, ror #21
    3640:	ea81 5134 	eor.w	r1, r1, r4, ror #20
    3644:	ea4f 51b1 	mov.w	r1, r1, ror #22
    3648:	f8c0 100c 	str.w	r1, [r0, #12]
    364c:	ea27 7176 	bic.w	r1, r7, r6, ror #29
    3650:	ea81 41b5 	eor.w	r1, r1, r5, ror #18
    3654:	ea4f 6171 	mov.w	r1, r1, ror #25
    3658:	f8c0 1014 	str.w	r1, [r0, #20]
    365c:	ea23 6177 	bic.w	r1, r3, r7, ror #25
    3660:	ea81 51b6 	eor.w	r1, r1, r6, ror #22
    3664:	f8c0 101c 	str.w	r1, [r0, #28]
    3668:	ea24 51b3 	bic.w	r1, r4, r3, ror #22
    366c:	ea81 31f7 	eor.w	r1, r1, r7, ror #15
    3670:	ea4f 21b1 	mov.w	r1, r1, ror #10
    3674:	f8c0 1024 	str.w	r1, [r0, #36]	@ 0x24
    3678:	ea25 75f4 	bic.w	r5, r5, r4, ror #31
    367c:	9905      	ldr	r1, [sp, #20]
    367e:	69cc      	ldr	r4, [r1, #28]
    3680:	f851 7f20 	ldr.w	r7, [r1, #32]!
    3684:	9105      	str	r1, [sp, #20]
    3686:	2fff      	cmp	r7, #255	@ 0xff
    3688:	ea83 23f5 	eor.w	r3, r3, r5, ror #11
    368c:	ea84 0103 	eor.w	r1, r4, r3
    3690:	f8c0 1004 	str.w	r1, [r0, #4]
	bne		KeccakF1600_StatePermute_RoundLoop
    3694:	f47e ac3a 	bne.w	1f0c <KeccakF1600_StatePermute_RoundLoop>
	add		sp, #mSize
    3698:	b006      	add	sp, #24
	pop		{ r4 - r12, pc }
    369a:	e8bd 9ff0 	ldmia.w	sp!, {r4, r5, r6, r7, r8, r9, sl, fp, ip, pc}
    369e:	bf00      	nop

000036a0 <aes_ctr>:
        out += AES_BLOCKBYTES;
    }
}


static void aes_ctr(unsigned char *out, size_t outlen, const unsigned char *iv, const uint64_t *rkeys, void (*aes_encrypt_asm)(const uint8_t *, const uint8_t *, uint8_t *)) {
    36a0:	e92d 43f0 	stmdb	sp!, {r4, r5, r6, r7, r8, r9, lr}
    36a4:	b089      	sub	sp, #36	@ 0x24
    36a6:	460e      	mov	r6, r1
    36a8:	4681      	mov	r9, r0
    uint32_t ivw[4] = {0};
    uint8_t buf[AES_BLOCKBYTES];
    size_t i;

    memcpy(ivw, iv, AESCTR_NONCEBYTES);
    36aa:	4611      	mov	r1, r2
static void aes_ctr(unsigned char *out, size_t outlen, const unsigned char *iv, const uint64_t *rkeys, void (*aes_encrypt_asm)(const uint8_t *, const uint8_t *, uint8_t *)) {
    36ac:	461d      	mov	r5, r3
    memcpy(ivw, iv, AESCTR_NONCEBYTES);
    36ae:	220c      	movs	r2, #12
    uint32_t ivw[4] = {0};
    36b0:	2300      	movs	r3, #0
    memcpy(ivw, iv, AESCTR_NONCEBYTES);
    36b2:	4668      	mov	r0, sp
    uint32_t ivw[4] = {0};
    36b4:	e9cd 3300 	strd	r3, r3, [sp]
    36b8:	e9cd 3302 	strd	r3, r3, [sp, #8]
static void aes_ctr(unsigned char *out, size_t outlen, const unsigned char *iv, const uint64_t *rkeys, void (*aes_encrypt_asm)(const uint8_t *, const uint8_t *, uint8_t *)) {
    36bc:	9f10      	ldr	r7, [sp, #64]	@ 0x40
    memcpy(ivw, iv, AESCTR_NONCEBYTES);
    36be:	f010 fd7d 	bl	141bc <memcpy>

    while (outlen > AES_BLOCKBYTES) {
    36c2:	2e10      	cmp	r6, #16
    36c4:	d932      	bls.n	372c <aes_ctr+0x8c>
    36c6:	f1a6 0811 	sub.w	r8, r6, #17
    36ca:	ea4f 1818 	mov.w	r8, r8, lsr #4
    36ce:	f108 0401 	add.w	r4, r8, #1
    36d2:	eb09 1404 	add.w	r4, r9, r4, lsl #4
        aes_encrypt_asm((uint8_t *)rkeys, (uint8_t *)ivw, out);
    36d6:	464a      	mov	r2, r9
    36d8:	4669      	mov	r1, sp
    36da:	4628      	mov	r0, r5
    36dc:	47b8      	blx	r7
    uint32_t t = br_swap32(*x) + 1;
    36de:	9a03      	ldr	r2, [sp, #12]
    36e0:	ba12      	rev	r2, r2
        inc1_be(ivw + 3);
        out += AES_BLOCKBYTES;
    36e2:	f109 0910 	add.w	r9, r9, #16
    uint32_t t = br_swap32(*x) + 1;
    36e6:	3201      	adds	r2, #1
    36e8:	ba12      	rev	r2, r2
    while (outlen > AES_BLOCKBYTES) {
    36ea:	45a1      	cmp	r9, r4
    *x = br_swap32(t);
    36ec:	9203      	str	r2, [sp, #12]
    while (outlen > AES_BLOCKBYTES) {
    36ee:	d1f2      	bne.n	36d6 <aes_ctr+0x36>
    36f0:	3e10      	subs	r6, #16
    36f2:	ebc8 7808 	rsb	r8, r8, r8, lsl #28
    36f6:	eb06 1608 	add.w	r6, r6, r8, lsl #4
        outlen -= AES_BLOCKBYTES;
    }
    if (outlen > 0) {
        aes_encrypt_asm((unsigned char *)rkeys, (unsigned char *)ivw, buf);
    36fa:	4669      	mov	r1, sp
    36fc:	4628      	mov	r0, r5
    36fe:	aa04      	add	r2, sp, #16
    3700:	47b8      	blx	r7
        for (i = 0; i < outlen; i++) {
    3702:	1e73      	subs	r3, r6, #1
    3704:	2b02      	cmp	r3, #2
    3706:	d934      	bls.n	3772 <aes_ctr+0xd2>
    3708:	08b3      	lsrs	r3, r6, #2
            out[i] = buf[i];
    370a:	9a04      	ldr	r2, [sp, #16]
    370c:	6022      	str	r2, [r4, #0]
        for (i = 0; i < outlen; i++) {
    370e:	2b01      	cmp	r3, #1
    3710:	d010      	beq.n	3734 <aes_ctr+0x94>
            out[i] = buf[i];
    3712:	9a05      	ldr	r2, [sp, #20]
    3714:	6062      	str	r2, [r4, #4]
        for (i = 0; i < outlen; i++) {
    3716:	2b02      	cmp	r3, #2
    3718:	d00c      	beq.n	3734 <aes_ctr+0x94>
            out[i] = buf[i];
    371a:	9a06      	ldr	r2, [sp, #24]
    371c:	60a2      	str	r2, [r4, #8]
        for (i = 0; i < outlen; i++) {
    371e:	2b04      	cmp	r3, #4
    3720:	d108      	bne.n	3734 <aes_ctr+0x94>
            out[i] = buf[i];
    3722:	9b07      	ldr	r3, [sp, #28]
    3724:	60e3      	str	r3, [r4, #12]
        }
    }
}
    3726:	b009      	add	sp, #36	@ 0x24
    3728:	e8bd 83f0 	ldmia.w	sp!, {r4, r5, r6, r7, r8, r9, pc}
    if (outlen > 0) {
    372c:	bb1e      	cbnz	r6, 3776 <aes_ctr+0xd6>
}
    372e:	b009      	add	sp, #36	@ 0x24
    3730:	e8bd 83f0 	ldmia.w	sp!, {r4, r5, r6, r7, r8, r9, pc}
    3734:	07b2      	lsls	r2, r6, #30
    3736:	f026 0303 	bic.w	r3, r6, #3
    373a:	d0f8      	beq.n	372e <aes_ctr+0x8e>
            out[i] = buf[i];
    373c:	f103 0220 	add.w	r2, r3, #32
    3740:	446a      	add	r2, sp
        for (i = 0; i < outlen; i++) {
    3742:	1c59      	adds	r1, r3, #1
            out[i] = buf[i];
    3744:	f812 2c10 	ldrb.w	r2, [r2, #-16]
    3748:	54e2      	strb	r2, [r4, r3]
        for (i = 0; i < outlen; i++) {
    374a:	42b1      	cmp	r1, r6
    374c:	d2ef      	bcs.n	372e <aes_ctr+0x8e>
            out[i] = buf[i];
    374e:	f103 0221 	add.w	r2, r3, #33	@ 0x21
    3752:	446a      	add	r2, sp
        for (i = 0; i < outlen; i++) {
    3754:	3302      	adds	r3, #2
            out[i] = buf[i];
    3756:	f812 2c10 	ldrb.w	r2, [r2, #-16]
    375a:	5462      	strb	r2, [r4, r1]
        for (i = 0; i < outlen; i++) {
    375c:	429e      	cmp	r6, r3
    375e:	d9e6      	bls.n	372e <aes_ctr+0x8e>
            out[i] = buf[i];
    3760:	f103 0220 	add.w	r2, r3, #32
    3764:	446a      	add	r2, sp
    3766:	f812 2c10 	ldrb.w	r2, [r2, #-16]
    376a:	54e2      	strb	r2, [r4, r3]
}
    376c:	b009      	add	sp, #36	@ 0x24
    376e:	e8bd 83f0 	ldmia.w	sp!, {r4, r5, r6, r7, r8, r9, pc}
        for (i = 0; i < outlen; i++) {
    3772:	2300      	movs	r3, #0
    3774:	e7e2      	b.n	373c <aes_ctr+0x9c>
    3776:	464c      	mov	r4, r9
    3778:	e7bf      	b.n	36fa <aes_ctr+0x5a>
    377a:	bf00      	nop

0000377c <aes128_ecb_keyexp_publicinputs>:
    uint64_t t1 = hal_get_time();
    hash_cycles += (t1-t0);
#endif
}

void aes128_ecb_keyexp_publicinputs(aes128ctx_publicinputs *r, const unsigned char *key) {
    377c:	b538      	push	{r3, r4, r5, lr}
    memcpy((uint8_t *)r->sk_exp, key, AES128_KEYBYTES);
    377e:	2210      	movs	r2, #16
void aes128_ecb_keyexp_publicinputs(aes128ctx_publicinputs *r, const unsigned char *key) {
    3780:	460c      	mov	r4, r1
    3782:	4605      	mov	r5, r0
    memcpy((uint8_t *)r->sk_exp, key, AES128_KEYBYTES);
    3784:	f010 fd1a 	bl	141bc <memcpy>
    aes128_keyexp_publicinputs_asm(key, ((uint8_t *)r->sk_exp) + AES128_KEYBYTES);
    3788:	f105 0110 	add.w	r1, r5, #16
    378c:	4620      	mov	r0, r4
    aes128_keyexp_publicinputs(r, key);
}
    378e:	e8bd 4038 	ldmia.w	sp!, {r3, r4, r5, lr}
    aes128_keyexp_publicinputs_asm(key, ((uint8_t *)r->sk_exp) + AES128_KEYBYTES);
    3792:	f000 b8b3 	b.w	38fc <aes128_keyexp_publicinputs_asm>
    3796:	bf00      	nop

00003798 <aes128_ctr_keyexp_publicinputs>:

void aes128_ctr_keyexp_publicinputs(aes128ctx_publicinputs *r, const unsigned char *key) {
    3798:	b538      	push	{r3, r4, r5, lr}
    379a:	2210      	movs	r2, #16
    379c:	460c      	mov	r4, r1
    379e:	4605      	mov	r5, r0
    37a0:	f010 fd0c 	bl	141bc <memcpy>
    37a4:	f105 0110 	add.w	r1, r5, #16
    37a8:	4620      	mov	r0, r4
    37aa:	e8bd 4038 	ldmia.w	sp!, {r3, r4, r5, lr}
    37ae:	f000 b8a5 	b.w	38fc <aes128_keyexp_publicinputs_asm>
    37b2:	bf00      	nop

000037b4 <aes192_ecb_keyexp_publicinputs>:
    hash_cycles += (t1-t0);
#endif
}


void aes192_ecb_keyexp_publicinputs(aes192ctx_publicinputs *r, const unsigned char *key) {
    37b4:	b538      	push	{r3, r4, r5, lr}
    memcpy((uint8_t *)r->sk_exp, key, AES192_KEYBYTES);
    37b6:	2218      	movs	r2, #24
void aes192_ecb_keyexp_publicinputs(aes192ctx_publicinputs *r, const unsigned char *key) {
    37b8:	460c      	mov	r4, r1
    37ba:	4605      	mov	r5, r0
    memcpy((uint8_t *)r->sk_exp, key, AES192_KEYBYTES);
    37bc:	f010 fcfe 	bl	141bc <memcpy>
    aes192_keyexp_publicinputs_asm(key, ((uint8_t *)r->sk_exp) + AES192_KEYBYTES);
    37c0:	f105 0118 	add.w	r1, r5, #24
    37c4:	4620      	mov	r0, r4
    aes192_keyexp_publicinputs(r, key);
}
    37c6:	e8bd 4038 	ldmia.w	sp!, {r3, r4, r5, lr}
    aes192_keyexp_publicinputs_asm(key, ((uint8_t *)r->sk_exp) + AES192_KEYBYTES);
    37ca:	f000 be2f 	b.w	442c <aes192_keyexp_publicinputs_asm>
    37ce:	bf00      	nop

000037d0 <aes192_ctr_keyexp_publicinputs>:

void aes192_ctr_keyexp_publicinputs(aes192ctx_publicinputs *r, const unsigned char *key) {
    37d0:	b538      	push	{r3, r4, r5, lr}
    37d2:	2218      	movs	r2, #24
    37d4:	460c      	mov	r4, r1
    37d6:	4605      	mov	r5, r0
    37d8:	f010 fcf0 	bl	141bc <memcpy>
    37dc:	f105 0118 	add.w	r1, r5, #24
    37e0:	4620      	mov	r0, r4
    37e2:	e8bd 4038 	ldmia.w	sp!, {r3, r4, r5, lr}
    37e6:	f000 be21 	b.w	442c <aes192_keyexp_publicinputs_asm>
    37ea:	bf00      	nop

000037ec <aes256_ecb_keyexp_publicinputs>:
    uint64_t t1 = hal_get_time();
    hash_cycles += (t1-t0);
#endif
}

void aes256_ecb_keyexp_publicinputs(aes256ctx_publicinputs *r, const unsigned char *key) {
    37ec:	b538      	push	{r3, r4, r5, lr}
    memcpy((uint8_t *)r->sk_exp, key, AES256_KEYBYTES);
    37ee:	2220      	movs	r2, #32
void aes256_ecb_keyexp_publicinputs(aes256ctx_publicinputs *r, const unsigned char *key) {
    37f0:	460c      	mov	r4, r1
    37f2:	4605      	mov	r5, r0
    memcpy((uint8_t *)r->sk_exp, key, AES256_KEYBYTES);
    37f4:	f010 fce2 	bl	141bc <memcpy>
    aes256_keyexp_publicinputs_asm(key, ((uint8_t *)r->sk_exp) + AES256_KEYBYTES);
    37f8:	f105 0120 	add.w	r1, r5, #32
    37fc:	4620      	mov	r0, r4
    aes256_keyexp_publicinputs(r, key);
}
    37fe:	e8bd 4038 	ldmia.w	sp!, {r3, r4, r5, lr}
    aes256_keyexp_publicinputs_asm(key, ((uint8_t *)r->sk_exp) + AES256_KEYBYTES);
    3802:	f001 bc5b 	b.w	50bc <aes256_keyexp_publicinputs_asm>
    3806:	bf00      	nop

00003808 <aes256_ctr_keyexp_publicinputs>:

void aes256_ctr_keyexp_publicinputs(aes256ctx_publicinputs *r, const unsigned char *key) {
    3808:	b538      	push	{r3, r4, r5, lr}
    380a:	2220      	movs	r2, #32
    380c:	460c      	mov	r4, r1
    380e:	4605      	mov	r5, r0
    3810:	f010 fcd4 	bl	141bc <memcpy>
    3814:	f105 0120 	add.w	r1, r5, #32
    3818:	4620      	mov	r0, r4
    381a:	e8bd 4038 	ldmia.w	sp!, {r3, r4, r5, lr}
    381e:	f001 bc4d 	b.w	50bc <aes256_keyexp_publicinputs_asm>
    3822:	bf00      	nop

00003824 <aes128_ecb_publicinputs>:
    for (i = 0; i < nblocks; ++i) {
    3824:	b1a2      	cbz	r2, 3850 <aes128_ecb_publicinputs+0x2c>
    aes256_keyexp_publicinputs(r, key);
}


void aes128_ecb_publicinputs(unsigned char *out, const unsigned char *in, size_t nblocks, const aes128ctx_publicinputs *ctx) {
    3826:	e92d 41f0 	stmdb	sp!, {r4, r5, r6, r7, r8, lr}
    382a:	4604      	mov	r4, r0
    382c:	460d      	mov	r5, r1
    382e:	4698      	mov	r8, r3
    3830:	4617      	mov	r7, r2
    for (i = 0; i < nblocks; ++i) {
    3832:	2600      	movs	r6, #0
        aes_encrypt_asm((uint8_t *)rkeys, in, out);
    3834:	4622      	mov	r2, r4
    3836:	4629      	mov	r1, r5
    3838:	4640      	mov	r0, r8
    for (i = 0; i < nblocks; ++i) {
    383a:	3601      	adds	r6, #1
        aes_encrypt_asm((uint8_t *)rkeys, in, out);
    383c:	f000 f9d4 	bl	3be8 <aes128_encrypt_publicinputs_asm>
    for (i = 0; i < nblocks; ++i) {
    3840:	42b7      	cmp	r7, r6
        in += AES_BLOCKBYTES;
    3842:	f105 0510 	add.w	r5, r5, #16
        out += AES_BLOCKBYTES;
    3846:	f104 0410 	add.w	r4, r4, #16
    for (i = 0; i < nblocks; ++i) {
    384a:	d1f3      	bne.n	3834 <aes128_ecb_publicinputs+0x10>

#ifdef PROFILE_HASHING
    uint64_t t1 = hal_get_time();
    hash_cycles += (t1-t0);
#endif
}
    384c:	e8bd 81f0 	ldmia.w	sp!, {r4, r5, r6, r7, r8, pc}
    3850:	4770      	bx	lr
    3852:	bf00      	nop

00003854 <aes128_ctr_publicinputs>:

void aes128_ctr_publicinputs(unsigned char *out, size_t outlen, const unsigned char *iv, const aes128ctx_publicinputs *ctx) {
    3854:	b510      	push	{r4, lr}
    3856:	b082      	sub	sp, #8
#ifdef PROFILE_HASHING
    uint64_t t0 = hal_get_time();
#endif

    aes_ctr(out, outlen, iv, ctx->sk_exp, aes128_encrypt_publicinputs_asm);
    3858:	4c02      	ldr	r4, [pc, #8]	@ (3864 <aes128_ctr_publicinputs+0x10>)
    385a:	9400      	str	r4, [sp, #0]
    385c:	f7ff ff20 	bl	36a0 <aes_ctr>

#ifdef PROFILE_HASHING
    uint64_t t1 = hal_get_time();
    hash_cycles += (t1-t0);
#endif
}
    3860:	b002      	add	sp, #8
    3862:	bd10      	pop	{r4, pc}
    3864:	00003be9 	.word	0x00003be9

00003868 <aes192_ecb_publicinputs>:
    for (i = 0; i < nblocks; ++i) {
    3868:	b1a2      	cbz	r2, 3894 <aes192_ecb_publicinputs+0x2c>

void aes192_ecb_publicinputs(unsigned char *out, const unsigned char *in, size_t nblocks, const aes192ctx_publicinputs *ctx) {
    386a:	e92d 41f0 	stmdb	sp!, {r4, r5, r6, r7, r8, lr}
    386e:	4604      	mov	r4, r0
    3870:	460d      	mov	r5, r1
    3872:	4698      	mov	r8, r3
    3874:	4617      	mov	r7, r2
    for (i = 0; i < nblocks; ++i) {
    3876:	2600      	movs	r6, #0
        aes_encrypt_asm((uint8_t *)rkeys, in, out);
    3878:	4622      	mov	r2, r4
    387a:	4629      	mov	r1, r5
    387c:	4640      	mov	r0, r8
    for (i = 0; i < nblocks; ++i) {
    387e:	3601      	adds	r6, #1
        aes_encrypt_asm((uint8_t *)rkeys, in, out);
    3880:	f000 ff2e 	bl	46e0 <aes192_encrypt_publicinputs_asm>
    for (i = 0; i < nblocks; ++i) {
    3884:	42b7      	cmp	r7, r6
        in += AES_BLOCKBYTES;
    3886:	f105 0510 	add.w	r5, r5, #16
        out += AES_BLOCKBYTES;
    388a:	f104 0410 	add.w	r4, r4, #16
    for (i = 0; i < nblocks; ++i) {
    388e:	d1f3      	bne.n	3878 <aes192_ecb_publicinputs+0x10>

#ifdef PROFILE_HASHING
    uint64_t t1 = hal_get_time();
    hash_cycles += (t1-t0);
#endif
}
    3890:	e8bd 81f0 	ldmia.w	sp!, {r4, r5, r6, r7, r8, pc}
    3894:	4770      	bx	lr
    3896:	bf00      	nop

00003898 <aes192_ctr_publicinputs>:

void aes192_ctr_publicinputs(unsigned char *out, size_t outlen, const unsigned char *iv, const aes192ctx_publicinputs *ctx) {
    3898:	b510      	push	{r4, lr}
    389a:	b082      	sub	sp, #8
#ifdef PROFILE_HASHING
    uint64_t t0 = hal_get_time();
#endif

    aes_ctr(out, outlen, iv, ctx->sk_exp, aes192_encrypt_publicinputs_asm);
    389c:	4c02      	ldr	r4, [pc, #8]	@ (38a8 <aes192_ctr_publicinputs+0x10>)
    389e:	9400      	str	r4, [sp, #0]
    38a0:	f7ff fefe 	bl	36a0 <aes_ctr>

#ifdef PROFILE_HASHING
    uint64_t t1 = hal_get_time();
    hash_cycles += (t1-t0);
#endif
}
    38a4:	b002      	add	sp, #8
    38a6:	bd10      	pop	{r4, pc}
    38a8:	000046e1 	.word	0x000046e1

000038ac <aes256_ecb_publicinputs>:
    for (i = 0; i < nblocks; ++i) {
    38ac:	b1a2      	cbz	r2, 38d8 <aes256_ecb_publicinputs+0x2c>

void aes256_ecb_publicinputs(unsigned char *out, const unsigned char *in, size_t nblocks, const aes256ctx_publicinputs *ctx) {
    38ae:	e92d 41f0 	stmdb	sp!, {r4, r5, r6, r7, r8, lr}
    38b2:	4604      	mov	r4, r0
    38b4:	460d      	mov	r5, r1
    38b6:	4698      	mov	r8, r3
    38b8:	4617      	mov	r7, r2
    for (i = 0; i < nblocks; ++i) {
    38ba:	2600      	movs	r6, #0
        aes_encrypt_asm((uint8_t *)rkeys, in, out);
    38bc:	4622      	mov	r2, r4
    38be:	4629      	mov	r1, r5
    38c0:	4640      	mov	r0, r8
    for (i = 0; i < nblocks; ++i) {
    38c2:	3601      	adds	r6, #1
        aes_encrypt_asm((uint8_t *)rkeys, in, out);
    38c4:	f001 fde2 	bl	548c <aes256_encrypt_publicinputs_asm>
    for (i = 0; i < nblocks; ++i) {
    38c8:	42b7      	cmp	r7, r6
        in += AES_BLOCKBYTES;
    38ca:	f105 0510 	add.w	r5, r5, #16
        out += AES_BLOCKBYTES;
    38ce:	f104 0410 	add.w	r4, r4, #16
    for (i = 0; i < nblocks; ++i) {
    38d2:	d1f3      	bne.n	38bc <aes256_ecb_publicinputs+0x10>

#ifdef PROFILE_HASHING
    uint64_t t1 = hal_get_time();
    hash_cycles += (t1-t0);
#endif
}
    38d4:	e8bd 81f0 	ldmia.w	sp!, {r4, r5, r6, r7, r8, pc}
    38d8:	4770      	bx	lr
    38da:	bf00      	nop

000038dc <aes256_ctr_publicinputs>:

void aes256_ctr_publicinputs(unsigned char *out, size_t outlen, const unsigned char *iv, const aes256ctx_publicinputs *ctx) {
    38dc:	b510      	push	{r4, lr}
    38de:	b082      	sub	sp, #8
#ifdef PROFILE_HASHING
    uint64_t t0 = hal_get_time();
#endif

    aes_ctr(out, outlen, iv, ctx->sk_exp, aes256_encrypt_publicinputs_asm);
    38e0:	4c02      	ldr	r4, [pc, #8]	@ (38ec <aes256_ctr_publicinputs+0x10>)
    38e2:	9400      	str	r4, [sp, #0]
    38e4:	f7ff fedc 	bl	36a0 <aes_ctr>

#ifdef PROFILE_HASHING
    uint64_t t1 = hal_get_time();
    hash_cycles += (t1-t0);
#endif
}
    38e8:	b002      	add	sp, #8
    38ea:	bd10      	pop	{r4, pc}
    38ec:	0000548d 	.word	0x0000548d

000038f0 <aes128_ctx_release_publicinputs>:
void aes128_ctx_release_publicinputs(aes128ctx_publicinputs *r) {
    // no-op for mupq's basic AES operation
    // this is required for compatibility with code from PQClean
    // see https://github.com/PQClean/PQClean/pull/198
    (void) r;
}
    38f0:	4770      	bx	lr
    38f2:	bf00      	nop

000038f4 <aes192_ctx_release_publicinputs>:

void aes192_ctx_release_publicinputs(aes192ctx_publicinputs *r) {
    38f4:	4770      	bx	lr
    38f6:	bf00      	nop

000038f8 <aes256_ctx_release_publicinputs>:
    // this is required for compatibility with code from PQClean
    // see https://github.com/PQClean/PQClean/pull/198
    (void) r;
}

void aes256_ctx_release_publicinputs(aes256ctx_publicinputs *r) {
    38f8:	4770      	bx	lr
    38fa:	bf00      	nop

000038fc <aes128_keyexp_publicinputs_asm>:
.type   aes128_keyexp_publicinputs_asm,%function
.align 2
aes128_keyexp_publicinputs_asm:

    //function prologue, preserve registers
    push {r4-r11}
    38fc:	e92d 0ff0 	stmdb	sp!, {r4, r5, r6, r7, r8, r9, sl, fp}

    //load key
    //pointer may be non-aligned, so avoid using ldm/stm
    ldr r4, [r0, #0]
    3900:	6804      	ldr	r4, [r0, #0]
    ldr r5, [r0, #4]
    3902:	6845      	ldr	r5, [r0, #4]
    ldr r6, [r0, #8]
    3904:	6886      	ldr	r6, [r0, #8]
    ldr r7, [r0, #12]
    3906:	68c7      	ldr	r7, [r0, #12]

    //load table address once
    ldr r3, =AES_Te0
    3908:	f8df 3b1c 	ldr.w	r3, [pc, #2844]	@ 4428 <aes128_encrypt_publicinputs_asm+0x840>

    //round 1
    uxtb r8, r7, ror #8
    390c:	fa5f f897 	uxtb.w	r8, r7, ror #8
    uxtb r9, r7, ror #16
    3910:	fa5f f9a7 	uxtb.w	r9, r7, ror #16
    uxtb r10, r7, ror #24
    3914:	fa5f fab7 	uxtb.w	sl, r7, ror #24
    uxtb r11, r7
    3918:	fa5f fb87 	uxtb.w	fp, r7

    ldrb r8, [r3, r8, lsl #2]
    391c:	f813 8028 	ldrb.w	r8, [r3, r8, lsl #2]
    ldrb r9, [r3, r9, lsl #2]
    3920:	f813 9029 	ldrb.w	r9, [r3, r9, lsl #2]
    ldrb r10, [r3, r10, lsl #2]
    3924:	f813 a02a 	ldrb.w	sl, [r3, sl, lsl #2]
    ldrb r11, [r3, r11, lsl #2]
    3928:	f813 b02b 	ldrb.w	fp, [r3, fp, lsl #2]

    eor r4, #0x00000001 //rcon
    392c:	f084 0401 	eor.w	r4, r4, #1
    eor r4, r4, r8
    3930:	ea84 0408 	eor.w	r4, r4, r8
    eor r4, r4, r9, lsl #8
    3934:	ea84 2409 	eor.w	r4, r4, r9, lsl #8
    eor r4, r4, r10, lsl #16
    3938:	ea84 440a 	eor.w	r4, r4, sl, lsl #16
    eor r4, r4, r11, lsl #24 //rk[4]
    393c:	ea84 640b 	eor.w	r4, r4, fp, lsl #24
    eor r5, r4 //rk[5]
    3940:	ea85 0504 	eor.w	r5, r5, r4
    eor r6, r5 //rk[6]
    3944:	ea86 0605 	eor.w	r6, r6, r5
    eor r7, r6 //rk[7]
    3948:	ea87 0706 	eor.w	r7, r7, r6

    //write to memory
    str r4, [r1, #0]
    394c:	600c      	str	r4, [r1, #0]
    str r5, [r1, #4]
    394e:	604d      	str	r5, [r1, #4]
    str r6, [r1, #8]
    3950:	608e      	str	r6, [r1, #8]
    str r7, [r1, #12]
    3952:	60cf      	str	r7, [r1, #12]

    //round 2
    uxtb r8, r7, ror #8
    3954:	fa5f f897 	uxtb.w	r8, r7, ror #8
    uxtb r9, r7, ror #16
    3958:	fa5f f9a7 	uxtb.w	r9, r7, ror #16
    uxtb r10, r7, ror #24
    395c:	fa5f fab7 	uxtb.w	sl, r7, ror #24
    uxtb r11, r7
    3960:	fa5f fb87 	uxtb.w	fp, r7

    ldrb r8, [r3, r8, lsl #2]
    3964:	f813 8028 	ldrb.w	r8, [r3, r8, lsl #2]
    ldrb r9, [r3, r9, lsl #2]
    3968:	f813 9029 	ldrb.w	r9, [r3, r9, lsl #2]
    ldrb r10, [r3, r10, lsl #2]
    396c:	f813 a02a 	ldrb.w	sl, [r3, sl, lsl #2]
    ldrb r11, [r3, r11, lsl #2]
    3970:	f813 b02b 	ldrb.w	fp, [r3, fp, lsl #2]

    eor r4, #0x00000002 //rcon
    3974:	f084 0402 	eor.w	r4, r4, #2
    eor r4, r4, r8
    3978:	ea84 0408 	eor.w	r4, r4, r8
    eor r4, r4, r9, lsl #8
    397c:	ea84 2409 	eor.w	r4, r4, r9, lsl #8
    eor r4, r4, r10, lsl #16
    3980:	ea84 440a 	eor.w	r4, r4, sl, lsl #16
    eor r4, r4, r11, lsl #24 //rk[8]
    3984:	ea84 640b 	eor.w	r4, r4, fp, lsl #24
    eor r5, r4 //rk[9]
    3988:	ea85 0504 	eor.w	r5, r5, r4
    eor r6, r5 //rk[10]
    398c:	ea86 0605 	eor.w	r6, r6, r5
    eor r7, r6 //rk[11]
    3990:	ea87 0706 	eor.w	r7, r7, r6

    //write to memory
    str r4, [r1, #16]
    3994:	610c      	str	r4, [r1, #16]
    str r5, [r1, #20]
    3996:	614d      	str	r5, [r1, #20]
    str r6, [r1, #24]
    3998:	618e      	str	r6, [r1, #24]
    str r7, [r1, #28]
    399a:	61cf      	str	r7, [r1, #28]

    //round 3
    uxtb r8, r7, ror #8
    399c:	fa5f f897 	uxtb.w	r8, r7, ror #8
    uxtb r9, r7, ror #16
    39a0:	fa5f f9a7 	uxtb.w	r9, r7, ror #16
    uxtb r10, r7, ror #24
    39a4:	fa5f fab7 	uxtb.w	sl, r7, ror #24
    uxtb r11, r7
    39a8:	fa5f fb87 	uxtb.w	fp, r7

    ldrb r8, [r3, r8, lsl #2]
    39ac:	f813 8028 	ldrb.w	r8, [r3, r8, lsl #2]
    ldrb r9, [r3, r9, lsl #2]
    39b0:	f813 9029 	ldrb.w	r9, [r3, r9, lsl #2]
    ldrb r10, [r3, r10, lsl #2]
    39b4:	f813 a02a 	ldrb.w	sl, [r3, sl, lsl #2]
    ldrb r11, [r3, r11, lsl #2]
    39b8:	f813 b02b 	ldrb.w	fp, [r3, fp, lsl #2]

    eor r4, #0x00000004 //rcon
    39bc:	f084 0404 	eor.w	r4, r4, #4
    eor r4, r4, r8
    39c0:	ea84 0408 	eor.w	r4, r4, r8
    eor r4, r4, r9, lsl #8
    39c4:	ea84 2409 	eor.w	r4, r4, r9, lsl #8
    eor r4, r4, r10, lsl #16
    39c8:	ea84 440a 	eor.w	r4, r4, sl, lsl #16
    eor r4, r4, r11, lsl #24 //rk[12]
    39cc:	ea84 640b 	eor.w	r4, r4, fp, lsl #24
    eor r5, r4 //rk[13]
    39d0:	ea85 0504 	eor.w	r5, r5, r4
    eor r6, r5 //rk[14]
    39d4:	ea86 0605 	eor.w	r6, r6, r5
    eor r7, r6 //rk[15]
    39d8:	ea87 0706 	eor.w	r7, r7, r6

    //write to memory
    str r4, [r1, #32]
    39dc:	620c      	str	r4, [r1, #32]
    str r5, [r1, #36]
    39de:	624d      	str	r5, [r1, #36]	@ 0x24
    str r6, [r1, #40]
    39e0:	628e      	str	r6, [r1, #40]	@ 0x28
    str r7, [r1, #44]
    39e2:	62cf      	str	r7, [r1, #44]	@ 0x2c

    //round 4
    uxtb r8, r7, ror #8
    39e4:	fa5f f897 	uxtb.w	r8, r7, ror #8
    uxtb r9, r7, ror #16
    39e8:	fa5f f9a7 	uxtb.w	r9, r7, ror #16
    uxtb r10, r7, ror #24
    39ec:	fa5f fab7 	uxtb.w	sl, r7, ror #24
    uxtb r11, r7
    39f0:	fa5f fb87 	uxtb.w	fp, r7

    ldrb r8, [r3, r8, lsl #2]
    39f4:	f813 8028 	ldrb.w	r8, [r3, r8, lsl #2]
    ldrb r9, [r3, r9, lsl #2]
    39f8:	f813 9029 	ldrb.w	r9, [r3, r9, lsl #2]
    ldrb r10, [r3, r10, lsl #2]
    39fc:	f813 a02a 	ldrb.w	sl, [r3, sl, lsl #2]
    ldrb r11, [r3, r11, lsl #2]
    3a00:	f813 b02b 	ldrb.w	fp, [r3, fp, lsl #2]

    eor r4, #0x00000008 //rcon
    3a04:	f084 0408 	eor.w	r4, r4, #8
    eor r4, r4, r8
    3a08:	ea84 0408 	eor.w	r4, r4, r8
    eor r4, r4, r9, lsl #8
    3a0c:	ea84 2409 	eor.w	r4, r4, r9, lsl #8
    eor r4, r4, r10, lsl #16
    3a10:	ea84 440a 	eor.w	r4, r4, sl, lsl #16
    eor r4, r4, r11, lsl #24 //rk[16]
    3a14:	ea84 640b 	eor.w	r4, r4, fp, lsl #24
    eor r5, r4 //rk[17]
    3a18:	ea85 0504 	eor.w	r5, r5, r4
    eor r6, r5 //rk[18]
    3a1c:	ea86 0605 	eor.w	r6, r6, r5
    eor r7, r6 //rk[19]
    3a20:	ea87 0706 	eor.w	r7, r7, r6

    //write to memory
    str r4, [r1, #48]
    3a24:	630c      	str	r4, [r1, #48]	@ 0x30
    str r5, [r1, #52]
    3a26:	634d      	str	r5, [r1, #52]	@ 0x34
    str r6, [r1, #56]
    3a28:	638e      	str	r6, [r1, #56]	@ 0x38
    str r7, [r1, #60]
    3a2a:	63cf      	str	r7, [r1, #60]	@ 0x3c

    //round 5
    uxtb r8, r7, ror #8
    3a2c:	fa5f f897 	uxtb.w	r8, r7, ror #8
    uxtb r9, r7, ror #16
    3a30:	fa5f f9a7 	uxtb.w	r9, r7, ror #16
    uxtb r10, r7, ror #24
    3a34:	fa5f fab7 	uxtb.w	sl, r7, ror #24
    uxtb r11, r7
    3a38:	fa5f fb87 	uxtb.w	fp, r7

    ldrb r8, [r3, r8, lsl #2]
    3a3c:	f813 8028 	ldrb.w	r8, [r3, r8, lsl #2]
    ldrb r9, [r3, r9, lsl #2]
    3a40:	f813 9029 	ldrb.w	r9, [r3, r9, lsl #2]
    ldrb r10, [r3, r10, lsl #2]
    3a44:	f813 a02a 	ldrb.w	sl, [r3, sl, lsl #2]
    ldrb r11, [r3, r11, lsl #2]
    3a48:	f813 b02b 	ldrb.w	fp, [r3, fp, lsl #2]

    eor r4, #0x00000010 //rcon
    3a4c:	f084 0410 	eor.w	r4, r4, #16
    eor r4, r4, r8
    3a50:	ea84 0408 	eor.w	r4, r4, r8
    eor r4, r4, r9, lsl #8
    3a54:	ea84 2409 	eor.w	r4, r4, r9, lsl #8
    eor r4, r4, r10, lsl #16
    3a58:	ea84 440a 	eor.w	r4, r4, sl, lsl #16
    eor r4, r4, r11, lsl #24 //rk[20]
    3a5c:	ea84 640b 	eor.w	r4, r4, fp, lsl #24
    eor r5, r4 //rk[21]
    3a60:	ea85 0504 	eor.w	r5, r5, r4
    eor r6, r5 //rk[22]
    3a64:	ea86 0605 	eor.w	r6, r6, r5
    eor r7, r6 //rk[23]
    3a68:	ea87 0706 	eor.w	r7, r7, r6

    //write to memory
    str r4, [r1, #64]
    3a6c:	640c      	str	r4, [r1, #64]	@ 0x40
    str r5, [r1, #68]
    3a6e:	644d      	str	r5, [r1, #68]	@ 0x44
    str r6, [r1, #72]
    3a70:	648e      	str	r6, [r1, #72]	@ 0x48
    str r7, [r1, #76]
    3a72:	64cf      	str	r7, [r1, #76]	@ 0x4c

    //round 6
    uxtb r8, r7, ror #8
    3a74:	fa5f f897 	uxtb.w	r8, r7, ror #8
    uxtb r9, r7, ror #16
    3a78:	fa5f f9a7 	uxtb.w	r9, r7, ror #16
    uxtb r10, r7, ror #24
    3a7c:	fa5f fab7 	uxtb.w	sl, r7, ror #24
    uxtb r11, r7
    3a80:	fa5f fb87 	uxtb.w	fp, r7

    ldrb r8, [r3, r8, lsl #2]
    3a84:	f813 8028 	ldrb.w	r8, [r3, r8, lsl #2]
    ldrb r9, [r3, r9, lsl #2]
    3a88:	f813 9029 	ldrb.w	r9, [r3, r9, lsl #2]
    ldrb r10, [r3, r10, lsl #2]
    3a8c:	f813 a02a 	ldrb.w	sl, [r3, sl, lsl #2]
    ldrb r11, [r3, r11, lsl #2]
    3a90:	f813 b02b 	ldrb.w	fp, [r3, fp, lsl #2]

    eor r4, #0x00000020 //rcon
    3a94:	f084 0420 	eor.w	r4, r4, #32
    eor r4, r4, r8
    3a98:	ea84 0408 	eor.w	r4, r4, r8
    eor r4, r4, r9, lsl #8
    3a9c:	ea84 2409 	eor.w	r4, r4, r9, lsl #8
    eor r4, r4, r10, lsl #16
    3aa0:	ea84 440a 	eor.w	r4, r4, sl, lsl #16
    eor r4, r4, r11, lsl #24 //rk[24]
    3aa4:	ea84 640b 	eor.w	r4, r4, fp, lsl #24
    eor r5, r4 //rk[25]
    3aa8:	ea85 0504 	eor.w	r5, r5, r4
    eor r6, r5 //rk[26]
    3aac:	ea86 0605 	eor.w	r6, r6, r5
    eor r7, r6 //rk[27]
    3ab0:	ea87 0706 	eor.w	r7, r7, r6

    //write to memory
    str r4, [r1, #80]
    3ab4:	650c      	str	r4, [r1, #80]	@ 0x50
    str r5, [r1, #84]
    3ab6:	654d      	str	r5, [r1, #84]	@ 0x54
    str r6, [r1, #88]
    3ab8:	658e      	str	r6, [r1, #88]	@ 0x58
    str r7, [r1, #92]
    3aba:	65cf      	str	r7, [r1, #92]	@ 0x5c

    //round 7
    uxtb r8, r7, ror #8
    3abc:	fa5f f897 	uxtb.w	r8, r7, ror #8
    uxtb r9, r7, ror #16
    3ac0:	fa5f f9a7 	uxtb.w	r9, r7, ror #16
    uxtb r10, r7, ror #24
    3ac4:	fa5f fab7 	uxtb.w	sl, r7, ror #24
    uxtb r11, r7
    3ac8:	fa5f fb87 	uxtb.w	fp, r7

    ldrb r8, [r3, r8, lsl #2]
    3acc:	f813 8028 	ldrb.w	r8, [r3, r8, lsl #2]
    ldrb r9, [r3, r9, lsl #2]
    3ad0:	f813 9029 	ldrb.w	r9, [r3, r9, lsl #2]
    ldrb r10, [r3, r10, lsl #2]
    3ad4:	f813 a02a 	ldrb.w	sl, [r3, sl, lsl #2]
    ldrb r11, [r3, r11, lsl #2]
    3ad8:	f813 b02b 	ldrb.w	fp, [r3, fp, lsl #2]

    eor r4, #0x00000040 //rcon
    3adc:	f084 0440 	eor.w	r4, r4, #64	@ 0x40
    eor r4, r4, r8
    3ae0:	ea84 0408 	eor.w	r4, r4, r8
    eor r4, r4, r9, lsl #8
    3ae4:	ea84 2409 	eor.w	r4, r4, r9, lsl #8
    eor r4, r4, r10, lsl #16
    3ae8:	ea84 440a 	eor.w	r4, r4, sl, lsl #16
    eor r4, r4, r11, lsl #24 //rk[28]
    3aec:	ea84 640b 	eor.w	r4, r4, fp, lsl #24
    eor r5, r4 //rk[29]
    3af0:	ea85 0504 	eor.w	r5, r5, r4
    eor r6, r5 //rk[30]
    3af4:	ea86 0605 	eor.w	r6, r6, r5
    eor r7, r6 //rk[31]
    3af8:	ea87 0706 	eor.w	r7, r7, r6

    //write to memory
    str r4, [r1, #96]
    3afc:	660c      	str	r4, [r1, #96]	@ 0x60
    str r5, [r1, #100]
    3afe:	664d      	str	r5, [r1, #100]	@ 0x64
    str r6, [r1, #104]
    3b00:	668e      	str	r6, [r1, #104]	@ 0x68
    str r7, [r1, #108]
    3b02:	66cf      	str	r7, [r1, #108]	@ 0x6c

    //round 8
    uxtb r8, r7, ror #8
    3b04:	fa5f f897 	uxtb.w	r8, r7, ror #8
    uxtb r9, r7, ror #16
    3b08:	fa5f f9a7 	uxtb.w	r9, r7, ror #16
    uxtb r10, r7, ror #24
    3b0c:	fa5f fab7 	uxtb.w	sl, r7, ror #24
    uxtb r11, r7
    3b10:	fa5f fb87 	uxtb.w	fp, r7

    ldrb r8, [r3, r8, lsl #2]
    3b14:	f813 8028 	ldrb.w	r8, [r3, r8, lsl #2]
    ldrb r9, [r3, r9, lsl #2]
    3b18:	f813 9029 	ldrb.w	r9, [r3, r9, lsl #2]
    ldrb r10, [r3, r10, lsl #2]
    3b1c:	f813 a02a 	ldrb.w	sl, [r3, sl, lsl #2]
    ldrb r11, [r3, r11, lsl #2]
    3b20:	f813 b02b 	ldrb.w	fp, [r3, fp, lsl #2]

    eor r4, #0x00000080 //rcon
    3b24:	f084 0480 	eor.w	r4, r4, #128	@ 0x80
    eor r4, r4, r8
    3b28:	ea84 0408 	eor.w	r4, r4, r8
    eor r4, r4, r9, lsl #8
    3b2c:	ea84 2409 	eor.w	r4, r4, r9, lsl #8
    eor r4, r4, r10, lsl #16
    3b30:	ea84 440a 	eor.w	r4, r4, sl, lsl #16
    eor r4, r4, r11, lsl #24 //rk[32]
    3b34:	ea84 640b 	eor.w	r4, r4, fp, lsl #24
    eor r5, r4 //rk[33]
    3b38:	ea85 0504 	eor.w	r5, r5, r4
    eor r6, r5 //rk[34]
    3b3c:	ea86 0605 	eor.w	r6, r6, r5
    eor r7, r6 //rk[35]
    3b40:	ea87 0706 	eor.w	r7, r7, r6

    //write to memory
    str r4, [r1, #112]
    3b44:	670c      	str	r4, [r1, #112]	@ 0x70
    str r5, [r1, #116]
    3b46:	674d      	str	r5, [r1, #116]	@ 0x74
    str r6, [r1, #120]
    3b48:	678e      	str	r6, [r1, #120]	@ 0x78
    str r7, [r1, #124]
    3b4a:	67cf      	str	r7, [r1, #124]	@ 0x7c

    add r1, #128
    3b4c:	f101 0180 	add.w	r1, r1, #128	@ 0x80

    //round 9
    uxtb r8, r7, ror #8
    3b50:	fa5f f897 	uxtb.w	r8, r7, ror #8
    uxtb r9, r7, ror #16
    3b54:	fa5f f9a7 	uxtb.w	r9, r7, ror #16
    uxtb r10, r7, ror #24
    3b58:	fa5f fab7 	uxtb.w	sl, r7, ror #24
    uxtb r11, r7
    3b5c:	fa5f fb87 	uxtb.w	fp, r7

    ldrb r8, [r3, r8, lsl #2]
    3b60:	f813 8028 	ldrb.w	r8, [r3, r8, lsl #2]
    ldrb r9, [r3, r9, lsl #2]
    3b64:	f813 9029 	ldrb.w	r9, [r3, r9, lsl #2]
    ldrb r10, [r3, r10, lsl #2]
    3b68:	f813 a02a 	ldrb.w	sl, [r3, sl, lsl #2]
    ldrb r11, [r3, r11, lsl #2]
    3b6c:	f813 b02b 	ldrb.w	fp, [r3, fp, lsl #2]

    eor r4, #0x0000001B //rcon
    3b70:	f084 041b 	eor.w	r4, r4, #27
    eor r4, r4, r8
    3b74:	ea84 0408 	eor.w	r4, r4, r8
    eor r4, r4, r9, lsl #8
    3b78:	ea84 2409 	eor.w	r4, r4, r9, lsl #8
    eor r4, r4, r10, lsl #16
    3b7c:	ea84 440a 	eor.w	r4, r4, sl, lsl #16
    eor r4, r4, r11, lsl #24 //rk[36]
    3b80:	ea84 640b 	eor.w	r4, r4, fp, lsl #24
    eor r5, r4 //rk[37]
    3b84:	ea85 0504 	eor.w	r5, r5, r4
    eor r6, r5 //rk[38]
    3b88:	ea86 0605 	eor.w	r6, r6, r5
    eor r7, r6 //rk[39]
    3b8c:	ea87 0706 	eor.w	r7, r7, r6

    //write to memory
    str r4, [r1, #0]
    3b90:	600c      	str	r4, [r1, #0]
    str r5, [r1, #4]
    3b92:	604d      	str	r5, [r1, #4]
    str r6, [r1, #8]
    3b94:	608e      	str	r6, [r1, #8]
    str r7, [r1, #12]
    3b96:	60cf      	str	r7, [r1, #12]

    //round 10
    uxtb r8, r7, ror #8
    3b98:	fa5f f897 	uxtb.w	r8, r7, ror #8
    uxtb r9, r7, ror #16
    3b9c:	fa5f f9a7 	uxtb.w	r9, r7, ror #16
    uxtb r10, r7, ror #24
    3ba0:	fa5f fab7 	uxtb.w	sl, r7, ror #24
    uxtb r11, r7
    3ba4:	fa5f fb87 	uxtb.w	fp, r7

    ldrb r8, [r3, r8, lsl #2]
    3ba8:	f813 8028 	ldrb.w	r8, [r3, r8, lsl #2]
    ldrb r9, [r3, r9, lsl #2]
    3bac:	f813 9029 	ldrb.w	r9, [r3, r9, lsl #2]
    ldrb r10, [r3, r10, lsl #2]
    3bb0:	f813 a02a 	ldrb.w	sl, [r3, sl, lsl #2]
    ldrb r11, [r3, r11, lsl #2]
    3bb4:	f813 b02b 	ldrb.w	fp, [r3, fp, lsl #2]

    eor r4, #0x00000036 //rcon
    3bb8:	f084 0436 	eor.w	r4, r4, #54	@ 0x36
    eor r4, r4, r8
    3bbc:	ea84 0408 	eor.w	r4, r4, r8
    eor r4, r4, r9, lsl #8
    3bc0:	ea84 2409 	eor.w	r4, r4, r9, lsl #8
    eor r4, r4, r10, lsl #16
    3bc4:	ea84 440a 	eor.w	r4, r4, sl, lsl #16
    eor r4, r4, r11, lsl #24 //rk[40]
    3bc8:	ea84 640b 	eor.w	r4, r4, fp, lsl #24
    eor r5, r4 //rk[41]
    3bcc:	ea85 0504 	eor.w	r5, r5, r4
    eor r6, r5 //rk[42]
    3bd0:	ea86 0605 	eor.w	r6, r6, r5
    eor r7, r6 //rk[43]
    3bd4:	ea87 0706 	eor.w	r7, r7, r6

    //write to memory
    str r4, [r1, #16]
    3bd8:	610c      	str	r4, [r1, #16]
    str r5, [r1, #20]
    3bda:	614d      	str	r5, [r1, #20]
    str r6, [r1, #24]
    3bdc:	618e      	str	r6, [r1, #24]
    str r7, [r1, #28]
    3bde:	61cf      	str	r7, [r1, #28]

    //function epilogue, restore state
    pop {r4-r11}
    3be0:	e8bd 0ff0 	ldmia.w	sp!, {r4, r5, r6, r7, r8, r9, sl, fp}
    bx lr
    3be4:	4770      	bx	lr
    3be6:	bf00      	nop

00003be8 <aes128_encrypt_publicinputs_asm>:
.type   aes128_encrypt_publicinputs_asm,%function
.align 2
aes128_encrypt_publicinputs_asm:

    //function prologue, preserve registers and free r2
    push {r2,r4-r12,r14}
    3be8:	e92d 5ff4 	stmdb	sp!, {r2, r4, r5, r6, r7, r8, r9, sl, fp, ip, lr}

    //load input
    ldr r4, [r1, #0]
    3bec:	680c      	ldr	r4, [r1, #0]
    ldr r5, [r1, #4]
    3bee:	684d      	ldr	r5, [r1, #4]
    ldr r6, [r1, #8]
    3bf0:	688e      	ldr	r6, [r1, #8]
    ldr r7, [r1, #12]
    3bf2:	68cf      	ldr	r7, [r1, #12]
    //r1 now free to overwrite
    //load key
    ldr r8, [r0], #4
    3bf4:	f850 8b04 	ldr.w	r8, [r0], #4
    ldr r9, [r0], #4
    3bf8:	f850 9b04 	ldr.w	r9, [r0], #4
    ldr r10, [r0], #4
    3bfc:	f850 ab04 	ldr.w	sl, [r0], #4
    ldr r11, [r0], #4
    3c00:	f850 bb04 	ldr.w	fp, [r0], #4
    mov.w r14, r0
    3c04:	ea4f 0e00 	mov.w	lr, r0

    //load table address once
    ldr r12, =AES_Te0
    3c08:	f8df c81c 	ldr.w	ip, [pc, #2076]	@ 4428 <aes128_encrypt_publicinputs_asm+0x840>

    //initial addroundkey
    eor r4, r8
    3c0c:	ea84 0408 	eor.w	r4, r4, r8
    eor r5, r9
    3c10:	ea85 0509 	eor.w	r5, r5, r9
    eor r6, r10
    3c14:	ea86 060a 	eor.w	r6, r6, sl
    eor r7, r11
    3c18:	ea87 070b 	eor.w	r7, r7, fp

.rept 4
    aesencrypt_oddround
    3c1c:	f85e 8b04 	ldr.w	r8, [lr], #4
    3c20:	f85e 9b04 	ldr.w	r9, [lr], #4
    3c24:	f85e ab04 	ldr.w	sl, [lr], #4
    3c28:	f85e bb04 	ldr.w	fp, [lr], #4
    3c2c:	b2e0      	uxtb	r0, r4
    3c2e:	b2e9      	uxtb	r1, r5
    3c30:	b2f2      	uxtb	r2, r6
    3c32:	b2fb      	uxtb	r3, r7
    3c34:	f85c 0020 	ldr.w	r0, [ip, r0, lsl #2]
    3c38:	f85c 1021 	ldr.w	r1, [ip, r1, lsl #2]
    3c3c:	f85c 2022 	ldr.w	r2, [ip, r2, lsl #2]
    3c40:	f85c 3023 	ldr.w	r3, [ip, r3, lsl #2]
    3c44:	ea88 4830 	eor.w	r8, r8, r0, ror #16
    3c48:	ea89 4931 	eor.w	r9, r9, r1, ror #16
    3c4c:	ea8a 4a32 	eor.w	sl, sl, r2, ror #16
    3c50:	ea8b 4b33 	eor.w	fp, fp, r3, ror #16
    3c54:	fa5f f095 	uxtb.w	r0, r5, ror #8
    3c58:	fa5f f196 	uxtb.w	r1, r6, ror #8
    3c5c:	fa5f f297 	uxtb.w	r2, r7, ror #8
    3c60:	fa5f f394 	uxtb.w	r3, r4, ror #8
    3c64:	f85c 0020 	ldr.w	r0, [ip, r0, lsl #2]
    3c68:	f85c 1021 	ldr.w	r1, [ip, r1, lsl #2]
    3c6c:	f85c 2022 	ldr.w	r2, [ip, r2, lsl #2]
    3c70:	f85c 3023 	ldr.w	r3, [ip, r3, lsl #2]
    3c74:	ea88 2830 	eor.w	r8, r8, r0, ror #8
    3c78:	ea89 2931 	eor.w	r9, r9, r1, ror #8
    3c7c:	ea8a 2a32 	eor.w	sl, sl, r2, ror #8
    3c80:	ea8b 2b33 	eor.w	fp, fp, r3, ror #8
    3c84:	fa5f f0a6 	uxtb.w	r0, r6, ror #16
    3c88:	fa5f f1a7 	uxtb.w	r1, r7, ror #16
    3c8c:	fa5f f2a4 	uxtb.w	r2, r4, ror #16
    3c90:	fa5f f3a5 	uxtb.w	r3, r5, ror #16
    3c94:	f85c 0020 	ldr.w	r0, [ip, r0, lsl #2]
    3c98:	f85c 1021 	ldr.w	r1, [ip, r1, lsl #2]
    3c9c:	f85c 2022 	ldr.w	r2, [ip, r2, lsl #2]
    3ca0:	f85c 3023 	ldr.w	r3, [ip, r3, lsl #2]
    3ca4:	ea88 0800 	eor.w	r8, r8, r0
    3ca8:	ea89 0901 	eor.w	r9, r9, r1
    3cac:	ea8a 0a02 	eor.w	sl, sl, r2
    3cb0:	ea8b 0b03 	eor.w	fp, fp, r3
    3cb4:	fa5f f0b7 	uxtb.w	r0, r7, ror #24
    3cb8:	fa5f f1b4 	uxtb.w	r1, r4, ror #24
    3cbc:	fa5f f2b5 	uxtb.w	r2, r5, ror #24
    3cc0:	fa5f f3b6 	uxtb.w	r3, r6, ror #24
    3cc4:	f85c 0020 	ldr.w	r0, [ip, r0, lsl #2]
    3cc8:	f85c 1021 	ldr.w	r1, [ip, r1, lsl #2]
    3ccc:	f85c 2022 	ldr.w	r2, [ip, r2, lsl #2]
    3cd0:	f85c 3023 	ldr.w	r3, [ip, r3, lsl #2]
    3cd4:	ea88 6830 	eor.w	r8, r8, r0, ror #24
    3cd8:	ea89 6931 	eor.w	r9, r9, r1, ror #24
    3cdc:	ea8a 6a32 	eor.w	sl, sl, r2, ror #24
    3ce0:	ea8b 6b33 	eor.w	fp, fp, r3, ror #24
    aesencrypt_evenround
    3ce4:	f85e 4b04 	ldr.w	r4, [lr], #4
    3ce8:	f85e 5b04 	ldr.w	r5, [lr], #4
    3cec:	f85e 6b04 	ldr.w	r6, [lr], #4
    3cf0:	f85e 7b04 	ldr.w	r7, [lr], #4
    3cf4:	fa5f f088 	uxtb.w	r0, r8
    3cf8:	fa5f f189 	uxtb.w	r1, r9
    3cfc:	fa5f f28a 	uxtb.w	r2, sl
    3d00:	fa5f f38b 	uxtb.w	r3, fp
    3d04:	f85c 0020 	ldr.w	r0, [ip, r0, lsl #2]
    3d08:	f85c 1021 	ldr.w	r1, [ip, r1, lsl #2]
    3d0c:	f85c 2022 	ldr.w	r2, [ip, r2, lsl #2]
    3d10:	f85c 3023 	ldr.w	r3, [ip, r3, lsl #2]
    3d14:	ea84 4430 	eor.w	r4, r4, r0, ror #16
    3d18:	ea85 4531 	eor.w	r5, r5, r1, ror #16
    3d1c:	ea86 4632 	eor.w	r6, r6, r2, ror #16
    3d20:	ea87 4733 	eor.w	r7, r7, r3, ror #16
    3d24:	fa5f f099 	uxtb.w	r0, r9, ror #8
    3d28:	fa5f f19a 	uxtb.w	r1, sl, ror #8
    3d2c:	fa5f f29b 	uxtb.w	r2, fp, ror #8
    3d30:	fa5f f398 	uxtb.w	r3, r8, ror #8
    3d34:	f85c 0020 	ldr.w	r0, [ip, r0, lsl #2]
    3d38:	f85c 1021 	ldr.w	r1, [ip, r1, lsl #2]
    3d3c:	f85c 2022 	ldr.w	r2, [ip, r2, lsl #2]
    3d40:	f85c 3023 	ldr.w	r3, [ip, r3, lsl #2]
    3d44:	ea84 2430 	eor.w	r4, r4, r0, ror #8
    3d48:	ea85 2531 	eor.w	r5, r5, r1, ror #8
    3d4c:	ea86 2632 	eor.w	r6, r6, r2, ror #8
    3d50:	ea87 2733 	eor.w	r7, r7, r3, ror #8
    3d54:	fa5f f0aa 	uxtb.w	r0, sl, ror #16
    3d58:	fa5f f1ab 	uxtb.w	r1, fp, ror #16
    3d5c:	fa5f f2a8 	uxtb.w	r2, r8, ror #16
    3d60:	fa5f f3a9 	uxtb.w	r3, r9, ror #16
    3d64:	f85c 0020 	ldr.w	r0, [ip, r0, lsl #2]
    3d68:	f85c 1021 	ldr.w	r1, [ip, r1, lsl #2]
    3d6c:	f85c 2022 	ldr.w	r2, [ip, r2, lsl #2]
    3d70:	f85c 3023 	ldr.w	r3, [ip, r3, lsl #2]
    3d74:	ea84 0400 	eor.w	r4, r4, r0
    3d78:	ea85 0501 	eor.w	r5, r5, r1
    3d7c:	ea86 0602 	eor.w	r6, r6, r2
    3d80:	ea87 0703 	eor.w	r7, r7, r3
    3d84:	fa5f f0bb 	uxtb.w	r0, fp, ror #24
    3d88:	fa5f f1b8 	uxtb.w	r1, r8, ror #24
    3d8c:	fa5f f2b9 	uxtb.w	r2, r9, ror #24
    3d90:	fa5f f3ba 	uxtb.w	r3, sl, ror #24
    3d94:	f85c 0020 	ldr.w	r0, [ip, r0, lsl #2]
    3d98:	f85c 1021 	ldr.w	r1, [ip, r1, lsl #2]
    3d9c:	f85c 2022 	ldr.w	r2, [ip, r2, lsl #2]
    3da0:	f85c 3023 	ldr.w	r3, [ip, r3, lsl #2]
    3da4:	ea84 6430 	eor.w	r4, r4, r0, ror #24
    3da8:	ea85 6531 	eor.w	r5, r5, r1, ror #24
    3dac:	ea86 6632 	eor.w	r6, r6, r2, ror #24
    3db0:	ea87 6733 	eor.w	r7, r7, r3, ror #24
    aesencrypt_oddround
    3db4:	f85e 8b04 	ldr.w	r8, [lr], #4
    3db8:	f85e 9b04 	ldr.w	r9, [lr], #4
    3dbc:	f85e ab04 	ldr.w	sl, [lr], #4
    3dc0:	f85e bb04 	ldr.w	fp, [lr], #4
    3dc4:	b2e0      	uxtb	r0, r4
    3dc6:	b2e9      	uxtb	r1, r5
    3dc8:	b2f2      	uxtb	r2, r6
    3dca:	b2fb      	uxtb	r3, r7
    3dcc:	f85c 0020 	ldr.w	r0, [ip, r0, lsl #2]
    3dd0:	f85c 1021 	ldr.w	r1, [ip, r1, lsl #2]
    3dd4:	f85c 2022 	ldr.w	r2, [ip, r2, lsl #2]
    3dd8:	f85c 3023 	ldr.w	r3, [ip, r3, lsl #2]
    3ddc:	ea88 4830 	eor.w	r8, r8, r0, ror #16
    3de0:	ea89 4931 	eor.w	r9, r9, r1, ror #16
    3de4:	ea8a 4a32 	eor.w	sl, sl, r2, ror #16
    3de8:	ea8b 4b33 	eor.w	fp, fp, r3, ror #16
    3dec:	fa5f f095 	uxtb.w	r0, r5, ror #8
    3df0:	fa5f f196 	uxtb.w	r1, r6, ror #8
    3df4:	fa5f f297 	uxtb.w	r2, r7, ror #8
    3df8:	fa5f f394 	uxtb.w	r3, r4, ror #8
    3dfc:	f85c 0020 	ldr.w	r0, [ip, r0, lsl #2]
    3e00:	f85c 1021 	ldr.w	r1, [ip, r1, lsl #2]
    3e04:	f85c 2022 	ldr.w	r2, [ip, r2, lsl #2]
    3e08:	f85c 3023 	ldr.w	r3, [ip, r3, lsl #2]
    3e0c:	ea88 2830 	eor.w	r8, r8, r0, ror #8
    3e10:	ea89 2931 	eor.w	r9, r9, r1, ror #8
    3e14:	ea8a 2a32 	eor.w	sl, sl, r2, ror #8
    3e18:	ea8b 2b33 	eor.w	fp, fp, r3, ror #8
    3e1c:	fa5f f0a6 	uxtb.w	r0, r6, ror #16
    3e20:	fa5f f1a7 	uxtb.w	r1, r7, ror #16
    3e24:	fa5f f2a4 	uxtb.w	r2, r4, ror #16
    3e28:	fa5f f3a5 	uxtb.w	r3, r5, ror #16
    3e2c:	f85c 0020 	ldr.w	r0, [ip, r0, lsl #2]
    3e30:	f85c 1021 	ldr.w	r1, [ip, r1, lsl #2]
    3e34:	f85c 2022 	ldr.w	r2, [ip, r2, lsl #2]
    3e38:	f85c 3023 	ldr.w	r3, [ip, r3, lsl #2]
    3e3c:	ea88 0800 	eor.w	r8, r8, r0
    3e40:	ea89 0901 	eor.w	r9, r9, r1
    3e44:	ea8a 0a02 	eor.w	sl, sl, r2
    3e48:	ea8b 0b03 	eor.w	fp, fp, r3
    3e4c:	fa5f f0b7 	uxtb.w	r0, r7, ror #24
    3e50:	fa5f f1b4 	uxtb.w	r1, r4, ror #24
    3e54:	fa5f f2b5 	uxtb.w	r2, r5, ror #24
    3e58:	fa5f f3b6 	uxtb.w	r3, r6, ror #24
    3e5c:	f85c 0020 	ldr.w	r0, [ip, r0, lsl #2]
    3e60:	f85c 1021 	ldr.w	r1, [ip, r1, lsl #2]
    3e64:	f85c 2022 	ldr.w	r2, [ip, r2, lsl #2]
    3e68:	f85c 3023 	ldr.w	r3, [ip, r3, lsl #2]
    3e6c:	ea88 6830 	eor.w	r8, r8, r0, ror #24
    3e70:	ea89 6931 	eor.w	r9, r9, r1, ror #24
    3e74:	ea8a 6a32 	eor.w	sl, sl, r2, ror #24
    3e78:	ea8b 6b33 	eor.w	fp, fp, r3, ror #24
    aesencrypt_evenround
    3e7c:	f85e 4b04 	ldr.w	r4, [lr], #4
    3e80:	f85e 5b04 	ldr.w	r5, [lr], #4
    3e84:	f85e 6b04 	ldr.w	r6, [lr], #4
    3e88:	f85e 7b04 	ldr.w	r7, [lr], #4
    3e8c:	fa5f f088 	uxtb.w	r0, r8
    3e90:	fa5f f189 	uxtb.w	r1, r9
    3e94:	fa5f f28a 	uxtb.w	r2, sl
    3e98:	fa5f f38b 	uxtb.w	r3, fp
    3e9c:	f85c 0020 	ldr.w	r0, [ip, r0, lsl #2]
    3ea0:	f85c 1021 	ldr.w	r1, [ip, r1, lsl #2]
    3ea4:	f85c 2022 	ldr.w	r2, [ip, r2, lsl #2]
    3ea8:	f85c 3023 	ldr.w	r3, [ip, r3, lsl #2]
    3eac:	ea84 4430 	eor.w	r4, r4, r0, ror #16
    3eb0:	ea85 4531 	eor.w	r5, r5, r1, ror #16
    3eb4:	ea86 4632 	eor.w	r6, r6, r2, ror #16
    3eb8:	ea87 4733 	eor.w	r7, r7, r3, ror #16
    3ebc:	fa5f f099 	uxtb.w	r0, r9, ror #8
    3ec0:	fa5f f19a 	uxtb.w	r1, sl, ror #8
    3ec4:	fa5f f29b 	uxtb.w	r2, fp, ror #8
    3ec8:	fa5f f398 	uxtb.w	r3, r8, ror #8
    3ecc:	f85c 0020 	ldr.w	r0, [ip, r0, lsl #2]
    3ed0:	f85c 1021 	ldr.w	r1, [ip, r1, lsl #2]
    3ed4:	f85c 2022 	ldr.w	r2, [ip, r2, lsl #2]
    3ed8:	f85c 3023 	ldr.w	r3, [ip, r3, lsl #2]
    3edc:	ea84 2430 	eor.w	r4, r4, r0, ror #8
    3ee0:	ea85 2531 	eor.w	r5, r5, r1, ror #8
    3ee4:	ea86 2632 	eor.w	r6, r6, r2, ror #8
    3ee8:	ea87 2733 	eor.w	r7, r7, r3, ror #8
    3eec:	fa5f f0aa 	uxtb.w	r0, sl, ror #16
    3ef0:	fa5f f1ab 	uxtb.w	r1, fp, ror #16
    3ef4:	fa5f f2a8 	uxtb.w	r2, r8, ror #16
    3ef8:	fa5f f3a9 	uxtb.w	r3, r9, ror #16
    3efc:	f85c 0020 	ldr.w	r0, [ip, r0, lsl #2]
    3f00:	f85c 1021 	ldr.w	r1, [ip, r1, lsl #2]
    3f04:	f85c 2022 	ldr.w	r2, [ip, r2, lsl #2]
    3f08:	f85c 3023 	ldr.w	r3, [ip, r3, lsl #2]
    3f0c:	ea84 0400 	eor.w	r4, r4, r0
    3f10:	ea85 0501 	eor.w	r5, r5, r1
    3f14:	ea86 0602 	eor.w	r6, r6, r2
    3f18:	ea87 0703 	eor.w	r7, r7, r3
    3f1c:	fa5f f0bb 	uxtb.w	r0, fp, ror #24
    3f20:	fa5f f1b8 	uxtb.w	r1, r8, ror #24
    3f24:	fa5f f2b9 	uxtb.w	r2, r9, ror #24
    3f28:	fa5f f3ba 	uxtb.w	r3, sl, ror #24
    3f2c:	f85c 0020 	ldr.w	r0, [ip, r0, lsl #2]
    3f30:	f85c 1021 	ldr.w	r1, [ip, r1, lsl #2]
    3f34:	f85c 2022 	ldr.w	r2, [ip, r2, lsl #2]
    3f38:	f85c 3023 	ldr.w	r3, [ip, r3, lsl #2]
    3f3c:	ea84 6430 	eor.w	r4, r4, r0, ror #24
    3f40:	ea85 6531 	eor.w	r5, r5, r1, ror #24
    3f44:	ea86 6632 	eor.w	r6, r6, r2, ror #24
    3f48:	ea87 6733 	eor.w	r7, r7, r3, ror #24
    aesencrypt_oddround
    3f4c:	f85e 8b04 	ldr.w	r8, [lr], #4
    3f50:	f85e 9b04 	ldr.w	r9, [lr], #4
    3f54:	f85e ab04 	ldr.w	sl, [lr], #4
    3f58:	f85e bb04 	ldr.w	fp, [lr], #4
    3f5c:	b2e0      	uxtb	r0, r4
    3f5e:	b2e9      	uxtb	r1, r5
    3f60:	b2f2      	uxtb	r2, r6
    3f62:	b2fb      	uxtb	r3, r7
    3f64:	f85c 0020 	ldr.w	r0, [ip, r0, lsl #2]
    3f68:	f85c 1021 	ldr.w	r1, [ip, r1, lsl #2]
    3f6c:	f85c 2022 	ldr.w	r2, [ip, r2, lsl #2]
    3f70:	f85c 3023 	ldr.w	r3, [ip, r3, lsl #2]
    3f74:	ea88 4830 	eor.w	r8, r8, r0, ror #16
    3f78:	ea89 4931 	eor.w	r9, r9, r1, ror #16
    3f7c:	ea8a 4a32 	eor.w	sl, sl, r2, ror #16
    3f80:	ea8b 4b33 	eor.w	fp, fp, r3, ror #16
    3f84:	fa5f f095 	uxtb.w	r0, r5, ror #8
    3f88:	fa5f f196 	uxtb.w	r1, r6, ror #8
    3f8c:	fa5f f297 	uxtb.w	r2, r7, ror #8
    3f90:	fa5f f394 	uxtb.w	r3, r4, ror #8
    3f94:	f85c 0020 	ldr.w	r0, [ip, r0, lsl #2]
    3f98:	f85c 1021 	ldr.w	r1, [ip, r1, lsl #2]
    3f9c:	f85c 2022 	ldr.w	r2, [ip, r2, lsl #2]
    3fa0:	f85c 3023 	ldr.w	r3, [ip, r3, lsl #2]
    3fa4:	ea88 2830 	eor.w	r8, r8, r0, ror #8
    3fa8:	ea89 2931 	eor.w	r9, r9, r1, ror #8
    3fac:	ea8a 2a32 	eor.w	sl, sl, r2, ror #8
    3fb0:	ea8b 2b33 	eor.w	fp, fp, r3, ror #8
    3fb4:	fa5f f0a6 	uxtb.w	r0, r6, ror #16
    3fb8:	fa5f f1a7 	uxtb.w	r1, r7, ror #16
    3fbc:	fa5f f2a4 	uxtb.w	r2, r4, ror #16
    3fc0:	fa5f f3a5 	uxtb.w	r3, r5, ror #16
